   1               		.file	"main.c"
   2               	__SREG__ = 0x3f
   3               	__SP_H__ = 0x3e
   4               	__SP_L__ = 0x3d
   5               	__CCP__  = 0x34
   6               	__tmp_reg__ = 0
   7               	__zero_reg__ = 1
  15               	.Ltext0:
  16               	.global	Blockfunktion
  18               	Blockfunktion:
  19               	.LFB7:
  20               	.LM1:
  21               	.LVL0:
  22 0000 EF92      		push r14
  23 0002 FF92      		push r15
  24 0004 0F93      		push r16
  25 0006 1F93      		push r17
  26 0008 CF93      		push r28
  27 000a DF93      		push r29
  28               	/* prologue: function */
  29               	/* frame size = 0 */
  30               	.LBB2:
  31               	.LM2:
  32 000c 9091 0000 		lds r25,ball_y
  33 0010 C92F      		mov r28,r25
  34 0012 D0E0      		ldi r29,lo8(0)
  35 0014 2297      		sbiw r28,2
  36 0016 2091 0000 		lds r18,ball_x
  37 001a 30E0      		ldi r19,lo8(0)
  38 001c 92E0      		ldi r25,lo8(2)
  39 001e E92E      		mov r14,r25
  40 0020 F12C      		mov r15,__zero_reg__
  41 0022 E20E      		add r14,r18
  42 0024 F31E      		adc r15,r19
  43 0026 8901      		movw r16,r18
  44 0028 0250      		subi r16,lo8(-(-2))
  45 002a 1040      		sbci r17,hi8(-(-2))
  46 002c 2091 0000 		lds r18,ball_vert
  47 0030 9BE0      		ldi r25,lo8(11)
  48 0032 899F      		mul r24,r25
  49 0034 F001      		movw r30,r0
  50 0036 1124      		clr r1
  51 0038 E050      		subi r30,lo8(-(blocks))
  52 003a F040      		sbci r31,hi8(-(blocks))
  53 003c A0E0      		ldi r26,lo8(blocks_koord)
  54 003e B0E0      		ldi r27,hi8(blocks_koord)
  55 0040 70E0      		ldi r23,lo8(0)
  56               	.LVL1:
  57               	.L6:
  58               	.LM3:
  59 0042 6081      		ld r22,Z
  60 0044 6623      		tst r22
  61 0046 01F0      		breq .L2
  62               	.LM4:
  63 0048 6330      		cpi r22,lo8(3)
  64 004a 01F0      		breq .L3
  65               	.LM5:
  66 004c 7F5F      		subi r23,lo8(-(1))
  67               	.L3:
  68               	.LM6:
  69 004e 1196      		adiw r26,1
  70 0050 8C91      		ld r24,X
  71 0052 1197      		sbiw r26,1
  72               	.LVL2:
  73 0054 90E0      		ldi r25,lo8(0)
  74 0056 0496      		adiw r24,4
  75 0058 8C17      		cp r24,r28
  76 005a 9D07      		cpc r25,r29
  77 005c 04F0      		brlt .L2
  78 005e 8C91      		ld r24,X
  79 0060 482F      		mov r20,r24
  80 0062 50E0      		ldi r21,lo8(0)
  81 0064 E416      		cp r14,r20
  82 0066 F506      		cpc r15,r21
  83 0068 04F0      		brlt .L2
  84 006a 1296      		adiw r26,2
  85 006c 8C91      		ld r24,X
  86 006e 1297      		sbiw r26,2
  87 0070 480F      		add r20,r24
  88 0072 511D      		adc r21,__zero_reg__
  89 0074 4017      		cp r20,r16
  90 0076 5107      		cpc r21,r17
  91 0078 04F0      		brlt .L2
  92               	.LM7:
  93 007a 862F      		mov r24,r22
  94 007c 8150      		subi r24,lo8(-(-1))
  95 007e 8230      		cpi r24,lo8(2)
  96 0080 00F4      		brsh .L4
  97               	.LM8:
  98 0082 8083      		st Z,r24
  99               	.L4:
 100               	.LM9:
 101 0084 8081      		ld r24,Z
 102 0086 8150      		subi r24,lo8(-(-1))
 103 0088 8230      		cpi r24,lo8(2)
 104 008a 00F0      		brlo .L5
 105               	.LM10:
 106 008c 1082      		st Z,__zero_reg__
 107               	.L5:
 108               	.LM11:
 109 008e 2130      		cpi r18,lo8(1)
 110 0090 01F4      		brne .L2
 111 0092 20E0      		ldi r18,lo8(0)
 112               	.LVL3:
 113               	.L2:
 114 0094 3196      		adiw r30,1
 115 0096 1396      		adiw r26,3
 116               	.LM12:
 117 0098 80E0      		ldi r24,hi8(blocks_koord+36)
 118 009a A030      		cpi r26,lo8(blocks_koord+36)
 119 009c B807      		cpc r27,r24
 120               	.LVL4:
 121 009e 01F4      		brne .L6
 122 00a0 2093 0000 		sts ball_vert,r18
 123               	.LBE2:
 124               	.LM13:
 125 00a4 872F      		mov r24,r23
 126               	/* epilogue start */
 127 00a6 DF91      		pop r29
 128 00a8 CF91      		pop r28
 129 00aa 1F91      		pop r17
 130 00ac 0F91      		pop r16
 131 00ae FF90      		pop r15
 132 00b0 EF90      		pop r14
 133 00b2 0895      		ret
 134               	.LFE7:
 136               	.global	__vector_11
 138               	__vector_11:
 139               	.LFB8:
 140               	.LM14:
 141 00b4 1F92      		push __zero_reg__
 142 00b6 0F92      		push r0
 143 00b8 0FB6      		in r0,__SREG__
 144 00ba 0F92      		push r0
 145 00bc 1124      		clr __zero_reg__
 146 00be 8F93      		push r24
 147 00c0 9F93      		push r25
 148               	/* prologue: Signal */
 149               	/* frame size = 0 */
 150               	.LM15:
 151 00c2 9091 0000 		lds r25,ms10
 152 00c6 9F5F      		subi r25,lo8(-(1))
 153 00c8 9093 0000 		sts ms10,r25
 154               	.LM16:
 155 00cc 8091 0000 		lds r24,entprell
 156 00d0 8823      		tst r24
 157 00d2 01F0      		breq .L10
 158 00d4 8150      		subi r24,lo8(-(-1))
 159 00d6 8093 0000 		sts entprell,r24
 160               	.L10:
 161               	.LM17:
 162 00da 9230      		cpi r25,lo8(2)
 163 00dc 01F4      		brne .L11
 164               	.LM18:
 165 00de 1092 0000 		sts ms10,__zero_reg__
 166               	.LM19:
 167 00e2 8091 0000 		lds r24,ms100
 168 00e6 8F5F      		subi r24,lo8(-(1))
 169 00e8 8093 0000 		sts ms100,r24
 170               	.L11:
 171               	.LM20:
 172 00ec 8091 0000 		lds r24,ms100
 173 00f0 8330      		cpi r24,lo8(3)
 174 00f2 01F4      		brne .L13
 175               	.LM21:
 176 00f4 1092 0000 		sts ms100,__zero_reg__
 177               	.LM22:
 178 00f8 81E0      		ldi r24,lo8(1)
 179 00fa 8093 0000 		sts Bewegung,r24
 180               	.L13:
 181               	/* epilogue start */
 182               	.LM23:
 183 00fe 9F91      		pop r25
 184 0100 8F91      		pop r24
 185 0102 0F90      		pop r0
 186 0104 0FBE      		out __SREG__,r0
 187 0106 0F90      		pop r0
 188 0108 1F90      		pop __zero_reg__
 189 010a 1895      		reti
 190               	.LFE8:
 192               		.data
 193               	.LC0:
 194 0000 5072 6573 		.string	"Press yellow   to start"
 194      7320 7965 
 194      6C6C 6F77 
 194      2020 2074 
 194      6F20 7374 
 195               	.LC1:
 196 0018 4741 4D45 		.string	"GAME OVER"
 196      204F 5645 
 196      5200 
 197               	.LC2:
 198 0022 5072 6573 		.string	"Press yellow  to restart"
 198      7320 7965 
 198      6C6C 6F77 
 198      2020 746F 
 198      2072 6573 
 199               		.text
 200               	.global	main
 202               	main:
 203               	.LFB9:
 204               	.LM24:
 205 010c AF92      		push r10
 206 010e BF92      		push r11
 207 0110 CF92      		push r12
 208 0112 DF92      		push r13
 209 0114 EF92      		push r14
 210 0116 FF92      		push r15
 211 0118 0F93      		push r16
 212 011a 1F93      		push r17
 213 011c CF93      		push r28
 214 011e DF93      		push r29
 215               	/* prologue: function */
 216               	/* frame size = 0 */
 217               	.LM25:
 218 0120 529A      		sbi 42-32,2
 219               	.LM26:
 220 0122 2A9A      		sbi 37-32,2
 221               	.LM27:
 222 0124 8AB1      		in r24,42-32
 223 0126 8B79      		andi r24,lo8(-101)
 224 0128 8AB9      		out 42-32,r24
 225               	.LM28:
 226 012a 8BB1      		in r24,43-32
 227 012c 8466      		ori r24,lo8(100)
 228 012e 8BB9      		out 43-32,r24
 229               	.LM29:
 230 0130 86EF      		ldi r24,lo8(1270)
 231 0132 94E0      		ldi r25,hi8(1270)
 232 0134 9093 8900 		sts (136)+1,r25
 233 0138 8093 8800 		sts 136,r24
 234               	.LM30:
 235 013c 8091 8100 		lds r24,129
 236 0140 8860      		ori r24,lo8(8)
 237 0142 8093 8100 		sts 129,r24
 238               	.LM31:
 239 0146 8091 6F00 		lds r24,111
 240 014a 8260      		ori r24,lo8(2)
 241 014c 8093 6F00 		sts 111,r24
 242               	.LM32:
 243 0150 8091 8100 		lds r24,129
 244 0154 8360      		ori r24,lo8(3)
 245 0156 8093 8100 		sts 129,r24
 246               	.LM33:
 247 015a 8DE0      		ldi r24,lo8(13)
 248 015c 8093 0000 		sts ball_y,r24
 249               	.LM34:
 250 0160 8AE2      		ldi r24,lo8(42)
 251 0162 8093 0000 		sts ball_x,r24
 252               	.LM35:
 253 0166 1092 0000 		sts ball_vert,__zero_reg__
 254               	.LM36:
 255 016a 8AE0      		ldi r24,lo8(10)
 256 016c 8093 0000 		sts ball_horiz,r24
 257               	.LM37:
 258 0170 8AE2      		ldi r24,lo8(42)
 259 0172 6DE0      		ldi r22,lo8(13)
 260 0174 42E0      		ldi r20,lo8(2)
 261 0176 21E0      		ldi r18,lo8(1)
 262 0178 0E94 0000 		call glcd_fill_circle
 263               	.LM38:
 264               	/* #APP */
 265               	 ;  202 "main.c" 1
 266 017c 7894      		sei
 267               	 ;  0 "" 2
 268               	.LM39:
 269               	/* #NOAPP */
 270 017e 0E94 0000 		call glcd_init
 271               	.LM40:
 272 0182 0E94 0000 		call glcd_clear
 273               	.LM41:
 274 0186 0E94 0000 		call glcd_write
 275               	.LM42:
 276 018a 80E0      		ldi r24,lo8(Font5x7)
 277 018c 90E0      		ldi r25,hi8(Font5x7)
 278 018e 65E0      		ldi r22,lo8(5)
 279 0190 47E0      		ldi r20,lo8(7)
 280 0192 20E2      		ldi r18,lo8(32)
 281 0194 0FE7      		ldi r16,lo8(127)
 282 0196 0E94 0000 		call glcd_tiny_set_font
 283 019a 13E2      		ldi r17,lo8(35)
 284               	.LVL5:
 285 019c E3E0      		ldi r30,lo8(3)
 286 019e FE2E      		mov r15,r30
 287               	.LVL6:
 288 01a0 EE24      		clr r14
 289               	.LVL7:
 290               	.LM43:
 291 01a2 7AE0      		ldi r23,lo8(10)
 292 01a4 B72E      		mov r11,r23
 293               	.LM44:
 294 01a6 64E1      		ldi r22,lo8(20)
 295 01a8 A62E      		mov r10,r22
 296               	.LM45:
 297 01aa CBE0      		ldi r28,lo8(11)
 298 01ac D0E0      		ldi r29,hi8(11)
 299               	.LM46:
 300 01ae 58E1      		ldi r21,lo8(24)
 301 01b0 D52E      		mov r13,r21
 302               	.LM47:
 303 01b2 48E2      		ldi r20,lo8(40)
 304 01b4 C42E      		mov r12,r20
 305               	.L45:
 306               	.LM48:
 307 01b6 81E0      		ldi r24,lo8(1)
 308 01b8 E816      		cp r14,r24
 309 01ba 01F0      		breq .L19
 310 01bc E816      		cp r14,r24
 311 01be 00F0      		brlo .L16
 312 01c0 82E0      		ldi r24,lo8(2)
 313 01c2 E816      		cp r14,r24
 314 01c4 01F4      		brne .L45
 315 01c6 00C0      		rjmp .L44
 316               	.L16:
 317               	.LM49:
 318 01c8 87E0      		ldi r24,lo8(7)
 319 01ca 62E0      		ldi r22,lo8(2)
 320 01cc 40E0      		ldi r20,lo8(.LC0)
 321 01ce 50E0      		ldi r21,hi8(.LC0)
 322 01d0 0E94 0000 		call glcd_tiny_draw_string
 323               	.LM50:
 324 01d4 80E0      		ldi r24,lo8(0)
 325 01d6 60E0      		ldi r22,lo8(0)
 326 01d8 44E5      		ldi r20,lo8(84)
 327 01da 2FE2      		ldi r18,lo8(47)
 328 01dc 01E0      		ldi r16,lo8(1)
 329 01de 0E94 0000 		call glcd_draw_rect
 330               	.LM51:
 331 01e2 0E94 0000 		call glcd_write
 332               	.LM52:
 333 01e6 8091 0000 		lds r24,ball_x
 334 01ea 6091 0000 		lds r22,ball_y
 335 01ee 42E0      		ldi r20,lo8(2)
 336 01f0 21E0      		ldi r18,lo8(1)
 337 01f2 0E94 0000 		call glcd_fill_circle
 338               	.LM53:
 339 01f6 4A99      		sbic 41-32,2
 340 01f8 00C0      		rjmp .L45
 341 01fa 8091 0000 		lds r24,entprell
 342 01fe 8823      		tst r24
 343 0200 01F4      		brne .L45
 344               	.LM54:
 345 0202 82E0      		ldi r24,lo8(2)
 346 0204 8093 0000 		sts entprell,r24
 347               	.LM55:
 348 0208 B092 0000 		sts ball_horiz,r11
 349 020c EE24      		clr r14
 350 020e E394      		inc r14
 351               	.LM56:
 352 0210 1092 0000 		sts ball_vert,__zero_reg__
 353               	.LM57:
 354 0214 A092 0000 		sts ball_y,r10
 355               	.L19:
 356               	.LM58:
 357 0218 0E94 0000 		call glcd_write
 358               	.LM59:
 359 021c 4E99      		sbic 41-32,6
 360 021e 00C0      		rjmp .L20
 361 0220 8091 0000 		lds r24,entprell
 362 0224 8823      		tst r24
 363 0226 01F4      		brne .L20
 364               	.LM60:
 365 0228 82E0      		ldi r24,lo8(2)
 366 022a 8093 0000 		sts entprell,r24
 367               	.LM61:
 368 022e 1150      		subi r17,lo8(-(-1))
 369               	.LM62:
 370 0230 01F4      		brne .L20
 371 0232 12E0      		ldi r17,lo8(2)
 372               	.L20:
 373               	.LM63:
 374 0234 4D99      		sbic 41-32,5
 375 0236 00C0      		rjmp .L21
 376 0238 8091 0000 		lds r24,entprell
 377 023c 8823      		tst r24
 378 023e 01F4      		brne .L21
 379               	.LM64:
 380 0240 82E0      		ldi r24,lo8(2)
 381 0242 8093 0000 		sts entprell,r24
 382               	.LM65:
 383 0246 1F5F      		subi r17,lo8(-(1))
 384               	.LM66:
 385 0248 1534      		cpi r17,lo8(69)
 386 024a 00F0      		brlo .L21
 387 024c 13E4      		ldi r17,lo8(67)
 388               	.L21:
 389               	.LM67:
 390 024e E091 0000 		lds r30,ball_vert
 391 0252 EE23      		tst r30
 392 0254 01F4      		brne .L22
 393 0256 8091 0000 		lds r24,Bewegung
 394 025a 8130      		cpi r24,lo8(1)
 395 025c 01F4      		brne .L23
 396               	.LM68:
 397 025e 8091 0000 		lds r24,ball_y
 398 0262 8F5F      		subi r24,lo8(-(1))
 399 0264 00C0      		rjmp .L46
 400               	.L22:
 401               	.LM69:
 402 0266 E130      		cpi r30,lo8(1)
 403 0268 01F4      		brne .L23
 404 026a 8091 0000 		lds r24,Bewegung
 405 026e 8130      		cpi r24,lo8(1)
 406 0270 01F4      		brne .L23
 407               	.LM70:
 408 0272 8091 0000 		lds r24,ball_y
 409 0276 8150      		subi r24,lo8(-(-1))
 410               	.L46:
 411 0278 8093 0000 		sts ball_y,r24
 412               	.L23:
 413               	.LM71:
 414 027c 8091 0000 		lds r24,ball_horiz
 415 0280 8823      		tst r24
 416 0282 01F4      		brne .L24
 417 0284 8091 0000 		lds r24,Bewegung
 418 0288 8130      		cpi r24,lo8(1)
 419 028a 01F4      		brne .L25
 420               	.LM72:
 421 028c 8091 0000 		lds r24,ball_x
 422 0290 8150      		subi r24,lo8(-(-1))
 423 0292 00C0      		rjmp .L47
 424               	.L24:
 425               	.LM73:
 426 0294 8130      		cpi r24,lo8(1)
 427 0296 01F4      		brne .L25
 428 0298 8091 0000 		lds r24,Bewegung
 429 029c 8130      		cpi r24,lo8(1)
 430 029e 01F4      		brne .L25
 431               	.LM74:
 432 02a0 8091 0000 		lds r24,ball_x
 433 02a4 8F5F      		subi r24,lo8(-(1))
 434               	.L47:
 435 02a6 8093 0000 		sts ball_x,r24
 436               	.L25:
 437               	.LM75:
 438 02aa 1092 0000 		sts Bewegung,__zero_reg__
 439               	.LM76:
 440 02ae F091 0000 		lds r31,ball_y
 441 02b2 6F2F      		mov r22,r31
 442 02b4 70E0      		ldi r23,lo8(0)
 443 02b6 6832      		cpi r22,40
 444 02b8 7105      		cpc r23,__zero_reg__
 445 02ba 04F0      		brlt .L26
 446 02bc 212F      		mov r18,r17
 447 02be 30E0      		ldi r19,lo8(0)
 448 02c0 8091 0000 		lds r24,ball_x
 449 02c4 482F      		mov r20,r24
 450 02c6 50E0      		ldi r21,lo8(0)
 451 02c8 C901      		movw r24,r18
 452 02ca 0496      		adiw r24,4
 453 02cc 8417      		cp r24,r20
 454 02ce 9507      		cpc r25,r21
 455 02d0 04F4      		brge .L26
 456 02d2 265F      		subi r18,lo8(-(10))
 457 02d4 3F4F      		sbci r19,hi8(-(10))
 458 02d6 2417      		cp r18,r20
 459 02d8 3507      		cpc r19,r21
 460 02da 04F0      		brlt .L26
 461 02dc EE23      		tst r30
 462 02de 01F4      		brne .L26
 463 02e0 6A32      		cpi r22,42
 464 02e2 7105      		cpc r23,__zero_reg__
 465 02e4 04F4      		brge .L28
 466               	.LM77:
 467 02e6 81E0      		ldi r24,lo8(1)
 468 02e8 8093 0000 		sts ball_vert,r24
 469 02ec 00C0      		rjmp .L27
 470               	.L26:
 471               	.LM78:
 472 02ee E130      		cpi r30,lo8(1)
 473 02f0 01F4      		brne .L28
 474 02f2 F330      		cpi r31,lo8(3)
 475 02f4 00F4      		brsh .L28
 476               	.LM79:
 477 02f6 1092 0000 		sts ball_vert,__zero_reg__
 478               	.L28:
 479               	.LM80:
 480 02fa 6832      		cpi r22,40
 481 02fc 7105      		cpc r23,__zero_reg__
 482 02fe 04F0      		brlt .L29
 483               	.L27:
 484 0300 4091 0000 		lds r20,ball_x
 485 0304 242F      		mov r18,r20
 486 0306 30E0      		ldi r19,lo8(0)
 487 0308 812F      		mov r24,r17
 488 030a 90E0      		ldi r25,lo8(0)
 489               	.LVL8:
 490 030c 0596      		adiw r24,5
 491               	.LVL9:
 492 030e 8217      		cp r24,r18
 493 0310 9307      		cpc r25,r19
 494 0312 04F0      		brlt .L29
 495 0314 4117      		cp r20,r17
 496 0316 00F0      		brlo .L29
 497               	.LVL10:
 498 0318 8091 0000 		lds r24,ball_vert
 499 031c 8823      		tst r24
 500 031e 01F4      		brne .L29
 501               	.LM81:
 502 0320 1092 0000 		sts ball_horiz,__zero_reg__
 503               	.LM82:
 504 0324 81E0      		ldi r24,lo8(1)
 505 0326 8093 0000 		sts ball_vert,r24
 506 032a 00C0      		rjmp .L30
 507               	.LVL11:
 508               	.L29:
 509               	.LM83:
 510 032c 8091 0000 		lds r24,ball_x
 511 0330 8330      		cpi r24,lo8(3)
 512 0332 00F4      		brsh .L30
 513               	.LM84:
 514 0334 81E0      		ldi r24,lo8(1)
 515 0336 8093 0000 		sts ball_horiz,r24
 516               	.L30:
 517               	.LM85:
 518 033a 212F      		mov r18,r17
 519 033c 30E0      		ldi r19,lo8(0)
 520 033e E091 0000 		lds r30,ball_x
 521 0342 4E2F      		mov r20,r30
 522 0344 50E0      		ldi r21,lo8(0)
 523 0346 C901      		movw r24,r18
 524 0348 0996      		adiw r24,9
 525 034a 8417      		cp r24,r20
 526 034c 9507      		cpc r25,r21
 527 034e 04F4      		brge .L31
 528 0350 215F      		subi r18,lo8(-(15))
 529 0352 3F4F      		sbci r19,hi8(-(15))
 530 0354 2417      		cp r18,r20
 531 0356 3507      		cpc r19,r21
 532 0358 04F0      		brlt .L31
 533 035a 6832      		cpi r22,40
 534 035c 7105      		cpc r23,__zero_reg__
 535 035e 04F0      		brlt .L31
 536 0360 8091 0000 		lds r24,ball_vert
 537 0364 8823      		tst r24
 538 0366 01F4      		brne .L31
 539               	.LM86:
 540 0368 81E0      		ldi r24,lo8(1)
 541 036a 8093 0000 		sts ball_horiz,r24
 542               	.LM87:
 543 036e 8093 0000 		sts ball_vert,r24
 544 0372 00C0      		rjmp .L32
 545               	.L31:
 546               	.LM88:
 547 0374 E235      		cpi r30,lo8(82)
 548 0376 00F0      		brlo .L32
 549               	.LM89:
 550 0378 1092 0000 		sts ball_horiz,__zero_reg__
 551               	.L32:
 552               	.LM90:
 553 037c 8091 0000 		lds r24,level
 554 0380 0E94 0000 		call Blockfunktion
 555               	.LVL12:
 556               	.LM91:
 557 0384 8091 0000 		lds r24,ball_y
 558 0388 90E0      		ldi r25,lo8(0)
 559 038a 8E97      		sbiw r24,46
 560 038c 04F0      		brlt .L33
 561               	.LM92:
 562 038e FA94      		dec r15
 563               	.LM93:
 564 0390 D092 0000 		sts ball_y,r13
 565               	.LM94:
 566 0394 C092 0000 		sts ball_x,r12
 567               	.LM95:
 568 0398 1092 0000 		sts ball_vert,__zero_reg__
 569               	.LM96:
 570 039c 82E0      		ldi r24,lo8(2)
 571 039e 8093 0000 		sts ball_horiz,r24
 572 03a2 00C0      		rjmp .L34
 573               	.L33:
 574               	.LM97:
 575 03a4 FF20      		tst r15
 576 03a6 01F4      		brne .L34
 577 03a8 32E0      		ldi r19,lo8(2)
 578 03aa E32E      		mov r14,r19
 579               	.L34:
 580               	.LM98:
 581 03ac 0E94 0000 		call glcd_clear_buffer
 582               	.LM99:
 583 03b0 8091 0000 		lds r24,level
 584 03b4 90E0      		ldi r25,lo8(0)
 585 03b6 8C9F      		mul r24,r28
 586 03b8 F001      		movw r30,r0
 587 03ba 8D9F      		mul r24,r29
 588 03bc F00D      		add r31,r0
 589 03be 9C9F      		mul r25,r28
 590 03c0 F00D      		add r31,r0
 591 03c2 1124      		clr r1
 592 03c4 E050      		subi r30,lo8(-(blocks))
 593 03c6 F040      		sbci r31,hi8(-(blocks))
 594 03c8 8091 0000 		lds r24,blocks_koord
 595 03cc 6091 0000 		lds r22,blocks_koord+1
 596 03d0 4091 0000 		lds r20,blocks_koord+2
 597 03d4 24E0      		ldi r18,lo8(4)
 598 03d6 0081      		ld r16,Z
 599 03d8 0E94 0000 		call glcd_fill_rect
 600               	.LM100:
 601 03dc 8091 0000 		lds r24,level
 602 03e0 90E0      		ldi r25,lo8(0)
 603 03e2 8C9F      		mul r24,r28
 604 03e4 F001      		movw r30,r0
 605 03e6 8D9F      		mul r24,r29
 606 03e8 F00D      		add r31,r0
 607 03ea 9C9F      		mul r25,r28
 608 03ec F00D      		add r31,r0
 609 03ee 1124      		clr r1
 610 03f0 E050      		subi r30,lo8(-(blocks))
 611 03f2 F040      		sbci r31,hi8(-(blocks))
 612 03f4 8091 0000 		lds r24,blocks_koord+3
 613 03f8 6091 0000 		lds r22,blocks_koord+4
 614 03fc 4091 0000 		lds r20,blocks_koord+5
 615 0400 24E0      		ldi r18,lo8(4)
 616 0402 0181      		ldd r16,Z+1
 617 0404 0E94 0000 		call glcd_fill_rect
 618               	.LM101:
 619 0408 8091 0000 		lds r24,level
 620 040c 90E0      		ldi r25,lo8(0)
 621 040e 8C9F      		mul r24,r28
 622 0410 F001      		movw r30,r0
 623 0412 8D9F      		mul r24,r29
 624 0414 F00D      		add r31,r0
 625 0416 9C9F      		mul r25,r28
 626 0418 F00D      		add r31,r0
 627 041a 1124      		clr r1
 628 041c E050      		subi r30,lo8(-(blocks))
 629 041e F040      		sbci r31,hi8(-(blocks))
 630 0420 8091 0000 		lds r24,blocks_koord+6
 631 0424 6091 0000 		lds r22,blocks_koord+7
 632 0428 4091 0000 		lds r20,blocks_koord+8
 633 042c 24E0      		ldi r18,lo8(4)
 634 042e 0281      		ldd r16,Z+2
 635 0430 0E94 0000 		call glcd_fill_rect
 636               	.LM102:
 637 0434 8091 0000 		lds r24,level
 638 0438 90E0      		ldi r25,lo8(0)
 639 043a 8C9F      		mul r24,r28
 640 043c F001      		movw r30,r0
 641 043e 8D9F      		mul r24,r29
 642 0440 F00D      		add r31,r0
 643 0442 9C9F      		mul r25,r28
 644 0444 F00D      		add r31,r0
 645 0446 1124      		clr r1
 646 0448 E050      		subi r30,lo8(-(blocks))
 647 044a F040      		sbci r31,hi8(-(blocks))
 648 044c 8091 0000 		lds r24,blocks_koord+9
 649 0450 6091 0000 		lds r22,blocks_koord+10
 650 0454 4091 0000 		lds r20,blocks_koord+11
 651 0458 24E0      		ldi r18,lo8(4)
 652 045a 0381      		ldd r16,Z+3
 653 045c 0E94 0000 		call glcd_fill_rect
 654               	.LM103:
 655 0460 8091 0000 		lds r24,level
 656 0464 90E0      		ldi r25,lo8(0)
 657 0466 8C9F      		mul r24,r28
 658 0468 F001      		movw r30,r0
 659 046a 8D9F      		mul r24,r29
 660 046c F00D      		add r31,r0
 661 046e 9C9F      		mul r25,r28
 662 0470 F00D      		add r31,r0
 663 0472 1124      		clr r1
 664 0474 E050      		subi r30,lo8(-(blocks))
 665 0476 F040      		sbci r31,hi8(-(blocks))
 666 0478 8091 0000 		lds r24,blocks_koord+12
 667 047c 6091 0000 		lds r22,blocks_koord+13
 668 0480 4091 0000 		lds r20,blocks_koord+14
 669 0484 24E0      		ldi r18,lo8(4)
 670 0486 0481      		ldd r16,Z+4
 671 0488 0E94 0000 		call glcd_fill_rect
 672               	.LM104:
 673 048c 8091 0000 		lds r24,level
 674 0490 90E0      		ldi r25,lo8(0)
 675 0492 8C9F      		mul r24,r28
 676 0494 F001      		movw r30,r0
 677 0496 8D9F      		mul r24,r29
 678 0498 F00D      		add r31,r0
 679 049a 9C9F      		mul r25,r28
 680 049c F00D      		add r31,r0
 681 049e 1124      		clr r1
 682 04a0 E050      		subi r30,lo8(-(blocks))
 683 04a2 F040      		sbci r31,hi8(-(blocks))
 684 04a4 8091 0000 		lds r24,blocks_koord+15
 685 04a8 6091 0000 		lds r22,blocks_koord+16
 686 04ac 4091 0000 		lds r20,blocks_koord+17
 687 04b0 24E0      		ldi r18,lo8(4)
 688 04b2 0581      		ldd r16,Z+5
 689 04b4 0E94 0000 		call glcd_fill_rect
 690               	.LM105:
 691 04b8 8091 0000 		lds r24,level
 692 04bc 90E0      		ldi r25,lo8(0)
 693 04be 8C9F      		mul r24,r28
 694 04c0 F001      		movw r30,r0
 695 04c2 8D9F      		mul r24,r29
 696 04c4 F00D      		add r31,r0
 697 04c6 9C9F      		mul r25,r28
 698 04c8 F00D      		add r31,r0
 699 04ca 1124      		clr r1
 700 04cc E050      		subi r30,lo8(-(blocks))
 701 04ce F040      		sbci r31,hi8(-(blocks))
 702 04d0 8091 0000 		lds r24,blocks_koord+18
 703 04d4 6091 0000 		lds r22,blocks_koord+19
 704 04d8 4091 0000 		lds r20,blocks_koord+20
 705 04dc 24E0      		ldi r18,lo8(4)
 706 04de 0681      		ldd r16,Z+6
 707 04e0 0E94 0000 		call glcd_fill_rect
 708               	.LM106:
 709 04e4 8091 0000 		lds r24,level
 710 04e8 90E0      		ldi r25,lo8(0)
 711 04ea 8C9F      		mul r24,r28
 712 04ec F001      		movw r30,r0
 713 04ee 8D9F      		mul r24,r29
 714 04f0 F00D      		add r31,r0
 715 04f2 9C9F      		mul r25,r28
 716 04f4 F00D      		add r31,r0
 717 04f6 1124      		clr r1
 718 04f8 E050      		subi r30,lo8(-(blocks))
 719 04fa F040      		sbci r31,hi8(-(blocks))
 720 04fc 8091 0000 		lds r24,blocks_koord+21
 721 0500 6091 0000 		lds r22,blocks_koord+22
 722 0504 4091 0000 		lds r20,blocks_koord+23
 723 0508 24E0      		ldi r18,lo8(4)
 724 050a 0781      		ldd r16,Z+7
 725 050c 0E94 0000 		call glcd_fill_rect
 726               	.LM107:
 727 0510 8091 0000 		lds r24,level
 728 0514 90E0      		ldi r25,lo8(0)
 729 0516 8C9F      		mul r24,r28
 730 0518 F001      		movw r30,r0
 731 051a 8D9F      		mul r24,r29
 732 051c F00D      		add r31,r0
 733 051e 9C9F      		mul r25,r28
 734 0520 F00D      		add r31,r0
 735 0522 1124      		clr r1
 736 0524 E050      		subi r30,lo8(-(blocks))
 737 0526 F040      		sbci r31,hi8(-(blocks))
 738 0528 8091 0000 		lds r24,blocks_koord+24
 739 052c 6091 0000 		lds r22,blocks_koord+25
 740 0530 4091 0000 		lds r20,blocks_koord+26
 741 0534 24E0      		ldi r18,lo8(4)
 742 0536 0085      		ldd r16,Z+8
 743 0538 0E94 0000 		call glcd_fill_rect
 744               	.LM108:
 745 053c 8091 0000 		lds r24,level
 746 0540 90E0      		ldi r25,lo8(0)
 747 0542 8C9F      		mul r24,r28
 748 0544 F001      		movw r30,r0
 749 0546 8D9F      		mul r24,r29
 750 0548 F00D      		add r31,r0
 751 054a 9C9F      		mul r25,r28
 752 054c F00D      		add r31,r0
 753 054e 1124      		clr r1
 754 0550 E050      		subi r30,lo8(-(blocks))
 755 0552 F040      		sbci r31,hi8(-(blocks))
 756 0554 8091 0000 		lds r24,blocks_koord+27
 757 0558 6091 0000 		lds r22,blocks_koord+28
 758 055c 4091 0000 		lds r20,blocks_koord+29
 759 0560 24E0      		ldi r18,lo8(4)
 760 0562 0185      		ldd r16,Z+9
 761 0564 0E94 0000 		call glcd_fill_rect
 762               	.LM109:
 763 0568 8091 0000 		lds r24,level
 764 056c 90E0      		ldi r25,lo8(0)
 765 056e 8C9F      		mul r24,r28
 766 0570 F001      		movw r30,r0
 767 0572 8D9F      		mul r24,r29
 768 0574 F00D      		add r31,r0
 769 0576 9C9F      		mul r25,r28
 770 0578 F00D      		add r31,r0
 771 057a 1124      		clr r1
 772 057c E050      		subi r30,lo8(-(blocks))
 773 057e F040      		sbci r31,hi8(-(blocks))
 774 0580 8091 0000 		lds r24,blocks_koord+30
 775 0584 6091 0000 		lds r22,blocks_koord+31
 776 0588 4091 0000 		lds r20,blocks_koord+32
 777 058c 24E0      		ldi r18,lo8(4)
 778 058e 0285      		ldd r16,Z+10
 779 0590 0E94 0000 		call glcd_fill_rect
 780               	.LM110:
 781 0594 83E0      		ldi r24,lo8(3)
 782 0596 F816      		cp r15,r24
 783 0598 01F4      		brne .L35
 784               	.LM111:
 785 059a 812F      		mov r24,r17
 786 059c 8F5E      		subi r24,lo8(-(17))
 787 059e 6AE2      		ldi r22,lo8(42)
 788 05a0 41E0      		ldi r20,lo8(1)
 789 05a2 0E94 0000 		call glcd_set_pixel
 790               	.LM112:
 791 05a6 812F      		mov r24,r17
 792 05a8 8D5E      		subi r24,lo8(-(19))
 793 05aa 6AE2      		ldi r22,lo8(42)
 794 05ac 41E0      		ldi r20,lo8(1)
 795 05ae 0E94 0000 		call glcd_set_pixel
 796               	.LM113:
 797 05b2 812F      		mov r24,r17
 798 05b4 8B5E      		subi r24,lo8(-(21))
 799 05b6 00C0      		rjmp .L48
 800               	.L35:
 801               	.LM114:
 802 05b8 82E0      		ldi r24,lo8(2)
 803 05ba F816      		cp r15,r24
 804 05bc 01F4      		brne .L37
 805               	.LM115:
 806 05be 812F      		mov r24,r17
 807 05c0 8D5E      		subi r24,lo8(-(19))
 808 05c2 6AE2      		ldi r22,lo8(42)
 809 05c4 41E0      		ldi r20,lo8(1)
 810 05c6 0E94 0000 		call glcd_set_pixel
 811 05ca 00C0      		rjmp .L49
 812               	.L37:
 813               	.LM116:
 814 05cc 81E0      		ldi r24,lo8(1)
 815 05ce F816      		cp r15,r24
 816 05d0 01F4      		brne .L36
 817               	.L49:
 818               	.LM117:
 819 05d2 812F      		mov r24,r17
 820 05d4 8F5E      		subi r24,lo8(-(17))
 821               	.L48:
 822 05d6 6AE2      		ldi r22,lo8(42)
 823 05d8 41E0      		ldi r20,lo8(1)
 824 05da 0E94 0000 		call glcd_set_pixel
 825               	.L36:
 826               	.LM118:
 827 05de 812F      		mov r24,r17
 828 05e0 6AE2      		ldi r22,lo8(42)
 829 05e2 4FE0      		ldi r20,lo8(15)
 830 05e4 23E0      		ldi r18,lo8(3)
 831 05e6 01E0      		ldi r16,lo8(1)
 832 05e8 0E94 0000 		call glcd_fill_rect
 833               	.LM119:
 834 05ec 8091 0000 		lds r24,ball_x
 835 05f0 6091 0000 		lds r22,ball_y
 836 05f4 42E0      		ldi r20,lo8(2)
 837 05f6 21E0      		ldi r18,lo8(1)
 838 05f8 0E94 0000 		call glcd_fill_circle
 839               	.LM120:
 840 05fc 80E0      		ldi r24,lo8(0)
 841 05fe 60E0      		ldi r22,lo8(0)
 842 0600 44E5      		ldi r20,lo8(84)
 843 0602 2FE2      		ldi r18,lo8(47)
 844 0604 0E94 0000 		call glcd_draw_rect
 845               	.LM121:
 846 0608 0E94 0000 		call glcd_write
 847 060c 00C0      		rjmp .L45
 848               	.L44:
 849               	.LM122:
 850 060e 0E94 0000 		call glcd_clear_buffer
 851               	.LM123:
 852 0612 80E1      		ldi r24,lo8(16)
 853 0614 61E0      		ldi r22,lo8(1)
 854 0616 40E0      		ldi r20,lo8(.LC1)
 855 0618 50E0      		ldi r21,hi8(.LC1)
 856 061a 0E94 0000 		call glcd_tiny_draw_string
 857               	.LM124:
 858 061e 87E0      		ldi r24,lo8(7)
 859 0620 63E0      		ldi r22,lo8(3)
 860 0622 40E0      		ldi r20,lo8(.LC2)
 861 0624 50E0      		ldi r21,hi8(.LC2)
 862 0626 0E94 0000 		call glcd_tiny_draw_string
 863               	.LM125:
 864 062a 0E94 0000 		call glcd_write
 865               	.LM126:
 866 062e 4A99      		sbic 41-32,2
 867 0630 00C0      		rjmp .L44
 868 0632 8091 0000 		lds r24,entprell
 869 0636 8823      		tst r24
 870 0638 01F4      		brne .L44
 871               	.LM127:
 872 063a E092 0000 		sts entprell,r14
 873 063e 23E0      		ldi r18,lo8(3)
 874 0640 F22E      		mov r15,r18
 875 0642 EE24      		clr r14
 876 0644 00C0      		rjmp .L16
 877               	.LFE9:
 879               	.global	level
 880               	.global	level
 881               		.section .bss
 884               	level:
 885 0000 00        		.skip 1,0
 886               	.global	ball_horiz
 887               		.data
 890               	ball_horiz:
 891 003b 0A        		.byte	10
 892               	.global	blocks
 895               	blocks:
 896 003c 01        		.byte	1
 897 003d 01        		.byte	1
 898 003e 01        		.byte	1
 899 003f 01        		.byte	1
 900 0040 01        		.byte	1
 901 0041 01        		.byte	1
 902 0042 01        		.byte	1
 903 0043 01        		.byte	1
 904 0044 01        		.byte	1
 905 0045 01        		.byte	1
 906 0046 01        		.byte	1
 907 0047 01        		.byte	1
 908 0048 02        		.byte	2
 909 0049 05        		.byte	5
 910 004a 02        		.byte	2
 911 004b 01        		.byte	1
 912 004c 01        		.byte	1
 913 004d 00        		.byte	0
 914 004e 03        		.byte	3
 915 004f 03        		.byte	3
 916 0050 00        		.byte	0
 917 0051 01        		.byte	1
 918 0052 05        		.byte	5
 919 0053 02        		.byte	2
 920 0054 04        		.byte	4
 921 0055 02        		.byte	2
 922 0056 05        		.byte	5
 923 0057 01        		.byte	1
 924 0058 01        		.byte	1
 925 0059 04        		.byte	4
 926 005a 04        		.byte	4
 927 005b 01        		.byte	1
 928 005c 01        		.byte	1
 929 005d 05        		.byte	5
 930 005e 01        		.byte	1
 931 005f 05        		.byte	5
 932 0060 01        		.byte	1
 933 0061 05        		.byte	5
 934 0062 00        		.byte	0
 935 0063 00        		.byte	0
 936 0064 03        		.byte	3
 937 0065 03        		.byte	3
 938 0066 00        		.byte	0
 939 0067 00        		.byte	0
 940               	.global	blocks_koord
 943               	blocks_koord:
 944 0068 04        		.byte	4
 945 0069 02        		.byte	2
 946 006a 0C        		.byte	12
 947 006b 14        		.byte	20
 948 006c 02        		.byte	2
 949 006d 0C        		.byte	12
 950 006e 24        		.byte	36
 951 006f 02        		.byte	2
 952 0070 0C        		.byte	12
 953 0071 34        		.byte	52
 954 0072 02        		.byte	2
 955 0073 0C        		.byte	12
 956 0074 44        		.byte	68
 957 0075 02        		.byte	2
 958 0076 0C        		.byte	12
 959 0077 04        		.byte	4
 960 0078 07        		.byte	7
 961 0079 04        		.byte	4
 962 007a 0C        		.byte	12
 963 007b 07        		.byte	7
 964 007c 0C        		.byte	12
 965 007d 1C        		.byte	28
 966 007e 07        		.byte	7
 967 007f 0C        		.byte	12
 968 0080 2C        		.byte	44
 969 0081 07        		.byte	7
 970 0082 0C        		.byte	12
 971 0083 3C        		.byte	60
 972 0084 07        		.byte	7
 973 0085 0C        		.byte	12
 974 0086 4C        		.byte	76
 975 0087 07        		.byte	7
 976 0088 04        		.byte	4
 977               	.global	ms10
 978               	.global	ms10
 979               		.section .bss
 982               	ms10:
 983 0001 00        		.skip 1,0
 984               	.global	ms100
 985               	.global	ms100
 988               	ms100:
 989 0002 00        		.skip 1,0
 990               	.global	Bewegung
 991               	.global	Bewegung
 994               	Bewegung:
 995 0003 00        		.skip 1,0
 996               	.global	entprell
 997               		.data
 1000               	entprell:
 1001 0089 03        		.byte	3
 1002               		.section	.progmem.data,"a",@progbits
 1005               	Font5x7:
 1006 0000 00        		.byte	0
 1007 0001 00        		.byte	0
 1008 0002 00        		.byte	0
 1009 0003 00        		.byte	0
 1010 0004 00        		.byte	0
 1011 0005 00        		.byte	0
 1012 0006 00        		.byte	0
 1013 0007 5F        		.byte	95
 1014 0008 00        		.byte	0
 1015 0009 00        		.byte	0
 1016 000a 00        		.byte	0
 1017 000b 07        		.byte	7
 1018 000c 00        		.byte	0
 1019 000d 07        		.byte	7
 1020 000e 00        		.byte	0
 1021 000f 14        		.byte	20
 1022 0010 7F        		.byte	127
 1023 0011 14        		.byte	20
 1024 0012 7F        		.byte	127
 1025 0013 14        		.byte	20
 1026 0014 24        		.byte	36
 1027 0015 2A        		.byte	42
 1028 0016 7F        		.byte	127
 1029 0017 2A        		.byte	42
 1030 0018 12        		.byte	18
 1031 0019 23        		.byte	35
 1032 001a 13        		.byte	19
 1033 001b 08        		.byte	8
 1034 001c 64        		.byte	100
 1035 001d 62        		.byte	98
 1036 001e 36        		.byte	54
 1037 001f 49        		.byte	73
 1038 0020 55        		.byte	85
 1039 0021 22        		.byte	34
 1040 0022 50        		.byte	80
 1041 0023 00        		.byte	0
 1042 0024 05        		.byte	5
 1043 0025 03        		.byte	3
 1044 0026 00        		.byte	0
 1045 0027 00        		.byte	0
 1046 0028 00        		.byte	0
 1047 0029 1C        		.byte	28
 1048 002a 22        		.byte	34
 1049 002b 41        		.byte	65
 1050 002c 00        		.byte	0
 1051 002d 00        		.byte	0
 1052 002e 41        		.byte	65
 1053 002f 22        		.byte	34
 1054 0030 1C        		.byte	28
 1055 0031 00        		.byte	0
 1056 0032 08        		.byte	8
 1057 0033 2A        		.byte	42
 1058 0034 1C        		.byte	28
 1059 0035 2A        		.byte	42
 1060 0036 08        		.byte	8
 1061 0037 08        		.byte	8
 1062 0038 08        		.byte	8
 1063 0039 3E        		.byte	62
 1064 003a 08        		.byte	8
 1065 003b 08        		.byte	8
 1066 003c 00        		.byte	0
 1067 003d 50        		.byte	80
 1068 003e 30        		.byte	48
 1069 003f 00        		.byte	0
 1070 0040 00        		.byte	0
 1071 0041 08        		.byte	8
 1072 0042 08        		.byte	8
 1073 0043 08        		.byte	8
 1074 0044 08        		.byte	8
 1075 0045 08        		.byte	8
 1076 0046 00        		.byte	0
 1077 0047 60        		.byte	96
 1078 0048 60        		.byte	96
 1079 0049 00        		.byte	0
 1080 004a 00        		.byte	0
 1081 004b 20        		.byte	32
 1082 004c 10        		.byte	16
 1083 004d 08        		.byte	8
 1084 004e 04        		.byte	4
 1085 004f 02        		.byte	2
 1086 0050 3E        		.byte	62
 1087 0051 51        		.byte	81
 1088 0052 49        		.byte	73
 1089 0053 45        		.byte	69
 1090 0054 3E        		.byte	62
 1091 0055 00        		.byte	0
 1092 0056 42        		.byte	66
 1093 0057 7F        		.byte	127
 1094 0058 40        		.byte	64
 1095 0059 00        		.byte	0
 1096 005a 42        		.byte	66
 1097 005b 61        		.byte	97
 1098 005c 51        		.byte	81
 1099 005d 49        		.byte	73
 1100 005e 46        		.byte	70
 1101 005f 21        		.byte	33
 1102 0060 41        		.byte	65
 1103 0061 45        		.byte	69
 1104 0062 4B        		.byte	75
 1105 0063 31        		.byte	49
 1106 0064 18        		.byte	24
 1107 0065 14        		.byte	20
 1108 0066 12        		.byte	18
 1109 0067 7F        		.byte	127
 1110 0068 10        		.byte	16
 1111 0069 27        		.byte	39
 1112 006a 45        		.byte	69
 1113 006b 45        		.byte	69
 1114 006c 45        		.byte	69
 1115 006d 39        		.byte	57
 1116 006e 3C        		.byte	60
 1117 006f 4A        		.byte	74
 1118 0070 49        		.byte	73
 1119 0071 49        		.byte	73
 1120 0072 30        		.byte	48
 1121 0073 01        		.byte	1
 1122 0074 71        		.byte	113
 1123 0075 09        		.byte	9
 1124 0076 05        		.byte	5
 1125 0077 03        		.byte	3
 1126 0078 36        		.byte	54
 1127 0079 49        		.byte	73
 1128 007a 49        		.byte	73
 1129 007b 49        		.byte	73
 1130 007c 36        		.byte	54
 1131 007d 06        		.byte	6
 1132 007e 49        		.byte	73
 1133 007f 49        		.byte	73
 1134 0080 29        		.byte	41
 1135 0081 1E        		.byte	30
 1136 0082 00        		.byte	0
 1137 0083 36        		.byte	54
 1138 0084 36        		.byte	54
 1139 0085 00        		.byte	0
 1140 0086 00        		.byte	0
 1141 0087 00        		.byte	0
 1142 0088 56        		.byte	86
 1143 0089 36        		.byte	54
 1144 008a 00        		.byte	0
 1145 008b 00        		.byte	0
 1146 008c 00        		.byte	0
 1147 008d 08        		.byte	8
 1148 008e 14        		.byte	20
 1149 008f 22        		.byte	34
 1150 0090 41        		.byte	65
 1151 0091 14        		.byte	20
 1152 0092 14        		.byte	20
 1153 0093 14        		.byte	20
 1154 0094 14        		.byte	20
 1155 0095 14        		.byte	20
 1156 0096 41        		.byte	65
 1157 0097 22        		.byte	34
 1158 0098 14        		.byte	20
 1159 0099 08        		.byte	8
 1160 009a 00        		.byte	0
 1161 009b 02        		.byte	2
 1162 009c 01        		.byte	1
 1163 009d 51        		.byte	81
 1164 009e 09        		.byte	9
 1165 009f 06        		.byte	6
 1166 00a0 32        		.byte	50
 1167 00a1 49        		.byte	73
 1168 00a2 79        		.byte	121
 1169 00a3 41        		.byte	65
 1170 00a4 3E        		.byte	62
 1171 00a5 7E        		.byte	126
 1172 00a6 11        		.byte	17
 1173 00a7 11        		.byte	17
 1174 00a8 11        		.byte	17
 1175 00a9 7E        		.byte	126
 1176 00aa 7F        		.byte	127
 1177 00ab 49        		.byte	73
 1178 00ac 49        		.byte	73
 1179 00ad 49        		.byte	73
 1180 00ae 36        		.byte	54
 1181 00af 3E        		.byte	62
 1182 00b0 41        		.byte	65
 1183 00b1 41        		.byte	65
 1184 00b2 41        		.byte	65
 1185 00b3 22        		.byte	34
 1186 00b4 7F        		.byte	127
 1187 00b5 41        		.byte	65
 1188 00b6 41        		.byte	65
 1189 00b7 22        		.byte	34
 1190 00b8 1C        		.byte	28
 1191 00b9 7F        		.byte	127
 1192 00ba 49        		.byte	73
 1193 00bb 49        		.byte	73
 1194 00bc 49        		.byte	73
 1195 00bd 41        		.byte	65
 1196 00be 7F        		.byte	127
 1197 00bf 09        		.byte	9
 1198 00c0 09        		.byte	9
 1199 00c1 01        		.byte	1
 1200 00c2 01        		.byte	1
 1201 00c3 3E        		.byte	62
 1202 00c4 41        		.byte	65
 1203 00c5 41        		.byte	65
 1204 00c6 51        		.byte	81
 1205 00c7 32        		.byte	50
 1206 00c8 7F        		.byte	127
 1207 00c9 08        		.byte	8
 1208 00ca 08        		.byte	8
 1209 00cb 08        		.byte	8
 1210 00cc 7F        		.byte	127
 1211 00cd 00        		.byte	0
 1212 00ce 41        		.byte	65
 1213 00cf 7F        		.byte	127
 1214 00d0 41        		.byte	65
 1215 00d1 00        		.byte	0
 1216 00d2 20        		.byte	32
 1217 00d3 40        		.byte	64
 1218 00d4 41        		.byte	65
 1219 00d5 3F        		.byte	63
 1220 00d6 01        		.byte	1
 1221 00d7 7F        		.byte	127
 1222 00d8 08        		.byte	8
 1223 00d9 14        		.byte	20
 1224 00da 22        		.byte	34
 1225 00db 41        		.byte	65
 1226 00dc 7F        		.byte	127
 1227 00dd 40        		.byte	64
 1228 00de 40        		.byte	64
 1229 00df 40        		.byte	64
 1230 00e0 40        		.byte	64
 1231 00e1 7F        		.byte	127
 1232 00e2 02        		.byte	2
 1233 00e3 04        		.byte	4
 1234 00e4 02        		.byte	2
 1235 00e5 7F        		.byte	127
 1236 00e6 7F        		.byte	127
 1237 00e7 04        		.byte	4
 1238 00e8 08        		.byte	8
 1239 00e9 10        		.byte	16
 1240 00ea 7F        		.byte	127
 1241 00eb 3E        		.byte	62
 1242 00ec 41        		.byte	65
 1243 00ed 41        		.byte	65
 1244 00ee 41        		.byte	65
 1245 00ef 3E        		.byte	62
 1246 00f0 7F        		.byte	127
 1247 00f1 09        		.byte	9
 1248 00f2 09        		.byte	9
 1249 00f3 09        		.byte	9
 1250 00f4 06        		.byte	6
 1251 00f5 3E        		.byte	62
 1252 00f6 41        		.byte	65
 1253 00f7 51        		.byte	81
 1254 00f8 21        		.byte	33
 1255 00f9 5E        		.byte	94
 1256 00fa 7F        		.byte	127
 1257 00fb 09        		.byte	9
 1258 00fc 19        		.byte	25
 1259 00fd 29        		.byte	41
 1260 00fe 46        		.byte	70
 1261 00ff 46        		.byte	70
 1262 0100 49        		.byte	73
 1263 0101 49        		.byte	73
 1264 0102 49        		.byte	73
 1265 0103 31        		.byte	49
 1266 0104 01        		.byte	1
 1267 0105 01        		.byte	1
 1268 0106 7F        		.byte	127
 1269 0107 01        		.byte	1
 1270 0108 01        		.byte	1
 1271 0109 3F        		.byte	63
 1272 010a 40        		.byte	64
 1273 010b 40        		.byte	64
 1274 010c 40        		.byte	64
 1275 010d 3F        		.byte	63
 1276 010e 1F        		.byte	31
 1277 010f 20        		.byte	32
 1278 0110 40        		.byte	64
 1279 0111 20        		.byte	32
 1280 0112 1F        		.byte	31
 1281 0113 7F        		.byte	127
 1282 0114 20        		.byte	32
 1283 0115 18        		.byte	24
 1284 0116 20        		.byte	32
 1285 0117 7F        		.byte	127
 1286 0118 63        		.byte	99
 1287 0119 14        		.byte	20
 1288 011a 08        		.byte	8
 1289 011b 14        		.byte	20
 1290 011c 63        		.byte	99
 1291 011d 03        		.byte	3
 1292 011e 04        		.byte	4
 1293 011f 78        		.byte	120
 1294 0120 04        		.byte	4
 1295 0121 03        		.byte	3
 1296 0122 61        		.byte	97
 1297 0123 51        		.byte	81
 1298 0124 49        		.byte	73
 1299 0125 45        		.byte	69
 1300 0126 43        		.byte	67
 1301 0127 00        		.byte	0
 1302 0128 00        		.byte	0
 1303 0129 7F        		.byte	127
 1304 012a 41        		.byte	65
 1305 012b 41        		.byte	65
 1306 012c 02        		.byte	2
 1307 012d 04        		.byte	4
 1308 012e 08        		.byte	8
 1309 012f 10        		.byte	16
 1310 0130 20        		.byte	32
 1311 0131 41        		.byte	65
 1312 0132 41        		.byte	65
 1313 0133 7F        		.byte	127
 1314 0134 00        		.byte	0
 1315 0135 00        		.byte	0
 1316 0136 04        		.byte	4
 1317 0137 02        		.byte	2
 1318 0138 01        		.byte	1
 1319 0139 02        		.byte	2
 1320 013a 04        		.byte	4
 1321 013b 40        		.byte	64
 1322 013c 40        		.byte	64
 1323 013d 40        		.byte	64
 1324 013e 40        		.byte	64
 1325 013f 40        		.byte	64
 1326 0140 00        		.byte	0
 1327 0141 01        		.byte	1
 1328 0142 02        		.byte	2
 1329 0143 04        		.byte	4
 1330 0144 00        		.byte	0
 1331 0145 20        		.byte	32
 1332 0146 54        		.byte	84
 1333 0147 54        		.byte	84
 1334 0148 54        		.byte	84
 1335 0149 78        		.byte	120
 1336 014a 7F        		.byte	127
 1337 014b 48        		.byte	72
 1338 014c 44        		.byte	68
 1339 014d 44        		.byte	68
 1340 014e 38        		.byte	56
 1341 014f 38        		.byte	56
 1342 0150 44        		.byte	68
 1343 0151 44        		.byte	68
 1344 0152 44        		.byte	68
 1345 0153 20        		.byte	32
 1346 0154 38        		.byte	56
 1347 0155 44        		.byte	68
 1348 0156 44        		.byte	68
 1349 0157 48        		.byte	72
 1350 0158 7F        		.byte	127
 1351 0159 38        		.byte	56
 1352 015a 54        		.byte	84
 1353 015b 54        		.byte	84
 1354 015c 54        		.byte	84
 1355 015d 18        		.byte	24
 1356 015e 08        		.byte	8
 1357 015f 7E        		.byte	126
 1358 0160 09        		.byte	9
 1359 0161 01        		.byte	1
 1360 0162 02        		.byte	2
 1361 0163 08        		.byte	8
 1362 0164 14        		.byte	20
 1363 0165 54        		.byte	84
 1364 0166 54        		.byte	84
 1365 0167 3C        		.byte	60
 1366 0168 7F        		.byte	127
 1367 0169 08        		.byte	8
 1368 016a 04        		.byte	4
 1369 016b 04        		.byte	4
 1370 016c 78        		.byte	120
 1371 016d 00        		.byte	0
 1372 016e 44        		.byte	68
 1373 016f 7D        		.byte	125
 1374 0170 40        		.byte	64
 1375 0171 00        		.byte	0
 1376 0172 20        		.byte	32
 1377 0173 40        		.byte	64
 1378 0174 44        		.byte	68
 1379 0175 3D        		.byte	61
 1380 0176 00        		.byte	0
 1381 0177 00        		.byte	0
 1382 0178 7F        		.byte	127
 1383 0179 10        		.byte	16
 1384 017a 28        		.byte	40
 1385 017b 44        		.byte	68
 1386 017c 00        		.byte	0
 1387 017d 41        		.byte	65
 1388 017e 7F        		.byte	127
 1389 017f 40        		.byte	64
 1390 0180 00        		.byte	0
 1391 0181 7C        		.byte	124
 1392 0182 04        		.byte	4
 1393 0183 18        		.byte	24
 1394 0184 04        		.byte	4
 1395 0185 78        		.byte	120
 1396 0186 7C        		.byte	124
 1397 0187 08        		.byte	8
 1398 0188 04        		.byte	4
 1399 0189 04        		.byte	4
 1400 018a 78        		.byte	120
 1401 018b 38        		.byte	56
 1402 018c 44        		.byte	68
 1403 018d 44        		.byte	68
 1404 018e 44        		.byte	68
 1405 018f 38        		.byte	56
 1406 0190 7C        		.byte	124
 1407 0191 14        		.byte	20
 1408 0192 14        		.byte	20
 1409 0193 14        		.byte	20
 1410 0194 08        		.byte	8
 1411 0195 08        		.byte	8
 1412 0196 14        		.byte	20
 1413 0197 14        		.byte	20
 1414 0198 18        		.byte	24
 1415 0199 7C        		.byte	124
 1416 019a 7C        		.byte	124
 1417 019b 08        		.byte	8
 1418 019c 04        		.byte	4
 1419 019d 04        		.byte	4
 1420 019e 08        		.byte	8
 1421 019f 48        		.byte	72
 1422 01a0 54        		.byte	84
 1423 01a1 54        		.byte	84
 1424 01a2 54        		.byte	84
 1425 01a3 20        		.byte	32
 1426 01a4 04        		.byte	4
 1427 01a5 3F        		.byte	63
 1428 01a6 44        		.byte	68
 1429 01a7 40        		.byte	64
 1430 01a8 20        		.byte	32
 1431 01a9 3C        		.byte	60
 1432 01aa 40        		.byte	64
 1433 01ab 40        		.byte	64
 1434 01ac 20        		.byte	32
 1435 01ad 7C        		.byte	124
 1436 01ae 1C        		.byte	28
 1437 01af 20        		.byte	32
 1438 01b0 40        		.byte	64
 1439 01b1 20        		.byte	32
 1440 01b2 1C        		.byte	28
 1441 01b3 3C        		.byte	60
 1442 01b4 40        		.byte	64
 1443 01b5 30        		.byte	48
 1444 01b6 40        		.byte	64
 1445 01b7 3C        		.byte	60
 1446 01b8 44        		.byte	68
 1447 01b9 28        		.byte	40
 1448 01ba 10        		.byte	16
 1449 01bb 28        		.byte	40
 1450 01bc 44        		.byte	68
 1451 01bd 0C        		.byte	12
 1452 01be 50        		.byte	80
 1453 01bf 50        		.byte	80
 1454 01c0 50        		.byte	80
 1455 01c1 3C        		.byte	60
 1456 01c2 44        		.byte	68
 1457 01c3 64        		.byte	100
 1458 01c4 54        		.byte	84
 1459 01c5 4C        		.byte	76
 1460 01c6 44        		.byte	68
 1461 01c7 00        		.byte	0
 1462 01c8 08        		.byte	8
 1463 01c9 36        		.byte	54
 1464 01ca 41        		.byte	65
 1465 01cb 00        		.byte	0
 1466 01cc 00        		.byte	0
 1467 01cd 00        		.byte	0
 1468 01ce 7F        		.byte	127
 1469 01cf 00        		.byte	0
 1470 01d0 00        		.byte	0
 1471 01d1 00        		.byte	0
 1472 01d2 41        		.byte	65
 1473 01d3 36        		.byte	54
 1474 01d4 08        		.byte	8
 1475 01d5 00        		.byte	0
 1476 01d6 08        		.byte	8
 1477 01d7 08        		.byte	8
 1478 01d8 2A        		.byte	42
 1479 01d9 1C        		.byte	28
 1480 01da 08        		.byte	8
 1481 01db 08        		.byte	8
 1482 01dc 1C        		.byte	28
 1483 01dd 2A        		.byte	42
 1484 01de 08        		.byte	8
 1485 01df 08        		.byte	8
 1486               		.comm ball_vert,1,1
 1487               		.comm ball_y,1,1
 1488               		.comm ball_x,1,1
 1529               	.Letext0:
DEFINED SYMBOLS
                            *ABS*:00000000 main.c
C:\Users\PLUM\AppData\Local\Temp/cc62tafH.s:2      *ABS*:0000003f __SREG__
C:\Users\PLUM\AppData\Local\Temp/cc62tafH.s:3      *ABS*:0000003e __SP_H__
C:\Users\PLUM\AppData\Local\Temp/cc62tafH.s:4      *ABS*:0000003d __SP_L__
C:\Users\PLUM\AppData\Local\Temp/cc62tafH.s:5      *ABS*:00000034 __CCP__
C:\Users\PLUM\AppData\Local\Temp/cc62tafH.s:6      *ABS*:00000000 __tmp_reg__
C:\Users\PLUM\AppData\Local\Temp/cc62tafH.s:7      *ABS*:00000001 __zero_reg__
C:\Users\PLUM\AppData\Local\Temp/cc62tafH.s:18     .text:00000000 Blockfunktion
                            *COM*:00000001 ball_y
                            *COM*:00000001 ball_x
                            *COM*:00000001 ball_vert
C:\Users\PLUM\AppData\Local\Temp/cc62tafH.s:895    .data:0000003c blocks
C:\Users\PLUM\AppData\Local\Temp/cc62tafH.s:943    .data:00000068 blocks_koord
C:\Users\PLUM\AppData\Local\Temp/cc62tafH.s:138    .text:000000b4 __vector_11
C:\Users\PLUM\AppData\Local\Temp/cc62tafH.s:982    .bss:00000001 ms10
C:\Users\PLUM\AppData\Local\Temp/cc62tafH.s:1000   .data:00000089 entprell
C:\Users\PLUM\AppData\Local\Temp/cc62tafH.s:988    .bss:00000002 ms100
C:\Users\PLUM\AppData\Local\Temp/cc62tafH.s:994    .bss:00000003 Bewegung
C:\Users\PLUM\AppData\Local\Temp/cc62tafH.s:202    .text:0000010c main
C:\Users\PLUM\AppData\Local\Temp/cc62tafH.s:890    .data:0000003b ball_horiz
C:\Users\PLUM\AppData\Local\Temp/cc62tafH.s:1005   .progmem.data:00000000 Font5x7
C:\Users\PLUM\AppData\Local\Temp/cc62tafH.s:884    .bss:00000000 level

UNDEFINED SYMBOLS
glcd_fill_circle
glcd_init
glcd_clear
glcd_write
glcd_tiny_set_font
glcd_tiny_draw_string
glcd_draw_rect
glcd_clear_buffer
glcd_fill_rect
glcd_set_pixel
__do_copy_data
__do_clear_bss
