   1               		.file	"main.c"
   2               	__SREG__ = 0x3f
   3               	__SP_H__ = 0x3e
   4               	__SP_L__ = 0x3d
   5               	__CCP__  = 0x34
   6               	__tmp_reg__ = 0
   7               	__zero_reg__ = 1
  15               	.Ltext0:
  16               	.global	__vector_11
  18               	__vector_11:
  19               	.LFB7:
  20               	.LM1:
  21 0000 1F92      		push __zero_reg__
  22 0002 0F92      		push r0
  23 0004 0FB6      		in r0,__SREG__
  24 0006 0F92      		push r0
  25 0008 1124      		clr __zero_reg__
  26 000a 8F93      		push r24
  27               	/* prologue: Signal */
  28               	/* frame size = 0 */
  29               	.LM2:
  30 000c 8091 0000 		lds r24,ms10
  31 0010 8F5F      		subi r24,lo8(-(1))
  32 0012 8093 0000 		sts ms10,r24
  33               	.LM3:
  34 0016 8230      		cpi r24,lo8(2)
  35 0018 01F4      		brne .L2
  36               	.LM4:
  37 001a 8091 0000 		lds r24,Bewegung
  38 001e 8F5F      		subi r24,lo8(-(1))
  39 0020 8093 0000 		sts Bewegung,r24
  40               	.LM5:
  41 0024 1092 0000 		sts ms10,__zero_reg__
  42               	.LM6:
  43 0028 8091 0000 		lds r24,ms100
  44 002c 8F5F      		subi r24,lo8(-(1))
  45 002e 8093 0000 		sts ms100,r24
  46               	.L2:
  47               	.LM7:
  48 0032 8091 0000 		lds r24,ms100
  49 0036 8330      		cpi r24,lo8(3)
  50 0038 01F4      		brne .L4
  51               	.LM8:
  52 003a 1092 0000 		sts Bewegung,__zero_reg__
  53               	.LM9:
  54 003e 1092 0000 		sts ms100,__zero_reg__
  55               	.L4:
  56               	/* epilogue start */
  57               	.LM10:
  58 0042 8F91      		pop r24
  59 0044 0F90      		pop r0
  60 0046 0FBE      		out __SREG__,r0
  61 0048 0F90      		pop r0
  62 004a 1F90      		pop __zero_reg__
  63 004c 1895      		reti
  64               	.LFE7:
  66               		.data
  67               	.LC0:
  68 0000 4741 4D45 		.string	"GAME OVER"
  68      204F 5645 
  68      5200 
  69               		.text
  70               	.global	main
  72               	main:
  73               	.LFB8:
  74               	.LM11:
  75 004e 2F92      		push r2
  76 0050 3F92      		push r3
  77 0052 4F92      		push r4
  78 0054 5F92      		push r5
  79 0056 6F92      		push r6
  80 0058 7F92      		push r7
  81 005a 8F92      		push r8
  82 005c 9F92      		push r9
  83 005e AF92      		push r10
  84 0060 BF92      		push r11
  85 0062 CF92      		push r12
  86 0064 DF92      		push r13
  87 0066 EF92      		push r14
  88 0068 FF92      		push r15
  89 006a 0F93      		push r16
  90 006c 1F93      		push r17
  91 006e DF93      		push r29
  92 0070 CF93      		push r28
  93 0072 00D0      		rcall .
  94 0074 CDB7      		in r28,__SP_L__
  95 0076 DEB7      		in r29,__SP_H__
  96               	/* prologue: function */
  97               	/* frame size = 2 */
  98               	.LM12:
  99 0078 529A      		sbi 42-32,2
 100               	.LM13:
 101 007a 2A9A      		sbi 37-32,2
 102               	.LM14:
 103 007c 8AB1      		in r24,42-32
 104 007e 8B79      		andi r24,lo8(-101)
 105 0080 8AB9      		out 42-32,r24
 106               	.LM15:
 107 0082 8BB1      		in r24,43-32
 108 0084 8466      		ori r24,lo8(100)
 109 0086 8BB9      		out 43-32,r24
 110               	.LM16:
 111 0088 86EF      		ldi r24,lo8(1270)
 112 008a 94E0      		ldi r25,hi8(1270)
 113 008c 9093 8900 		sts (136)+1,r25
 114 0090 8093 8800 		sts 136,r24
 115               	.LM17:
 116 0094 8091 8100 		lds r24,129
 117 0098 8860      		ori r24,lo8(8)
 118 009a 8093 8100 		sts 129,r24
 119               	.LM18:
 120 009e 8091 6F00 		lds r24,111
 121 00a2 8260      		ori r24,lo8(2)
 122 00a4 8093 6F00 		sts 111,r24
 123               	.LM19:
 124 00a8 8091 8100 		lds r24,129
 125 00ac 8360      		ori r24,lo8(3)
 126 00ae 8093 8100 		sts 129,r24
 127               	.LM20:
 128 00b2 8AE2      		ldi r24,lo8(42)
 129 00b4 6CE0      		ldi r22,lo8(12)
 130 00b6 42E0      		ldi r20,lo8(2)
 131 00b8 21E0      		ldi r18,lo8(1)
 132 00ba 0E94 0000 		call glcd_fill_circle
 133               	.LM21:
 134               	/* #APP */
 135               	 ;  151 "main.c" 1
 136 00be 7894      		sei
 137               	 ;  0 "" 2
 138               	.LM22:
 139               	/* #NOAPP */
 140 00c0 0E94 0000 		call glcd_init
 141               	.LM23:
 142 00c4 0E94 0000 		call glcd_clear
 143               	.LM24:
 144 00c8 0E94 0000 		call glcd_write
 145               	.LM25:
 146 00cc 80E0      		ldi r24,lo8(Font5x7)
 147 00ce 90E0      		ldi r25,hi8(Font5x7)
 148 00d0 65E0      		ldi r22,lo8(5)
 149 00d2 47E0      		ldi r20,lo8(7)
 150 00d4 20E2      		ldi r18,lo8(32)
 151 00d6 0FE7      		ldi r16,lo8(127)
 152 00d8 0E94 0000 		call glcd_tiny_set_font
 153 00dc 63E2      		ldi r22,lo8(35)
 154 00de E62E      		mov r14,r22
 155               	.LVL0:
 156 00e0 5CE0      		ldi r21,lo8(12)
 157 00e2 D52E      		mov r13,r21
 158               	.LVL1:
 159 00e4 1AE2      		ldi r17,lo8(42)
 160               	.LVL2:
 161 00e6 FF24      		clr r15
 162               	.LVL3:
 163 00e8 4AE0      		ldi r20,lo8(10)
 164 00ea C42E      		mov r12,r20
 165               	.LVL4:
 166 00ec 83E0      		ldi r24,lo8(3)
 167 00ee 8A83      		std Y+2,r24
 168               	.LVL5:
 169 00f0 E1E0      		ldi r30,lo8(1)
 170 00f2 E983      		std Y+1,r30
 171               	.LVL6:
 172 00f4 2224      		clr r2
 173 00f6 2394      		inc r2
 174               	.LVL7:
 175 00f8 3324      		clr r3
 176 00fa 3394      		inc r3
 177               	.LVL8:
 178 00fc 4424      		clr r4
 179 00fe 4394      		inc r4
 180               	.LVL9:
 181 0100 5524      		clr r5
 182 0102 5394      		inc r5
 183               	.LVL10:
 184 0104 6624      		clr r6
 185 0106 6394      		inc r6
 186               	.LVL11:
 187 0108 7724      		clr r7
 188 010a 7394      		inc r7
 189               	.LVL12:
 190 010c 8824      		clr r8
 191 010e 8394      		inc r8
 192               	.LVL13:
 193 0110 9924      		clr r9
 194 0112 9394      		inc r9
 195               	.LVL14:
 196 0114 AA24      		clr r10
 197 0116 A394      		inc r10
 198               	.LVL15:
 199 0118 BB24      		clr r11
 200 011a B394      		inc r11
 201               	.LVL16:
 202               	.L49:
 203               	.LM26:
 204 011c 4E99      		sbic 41-32,6
 205 011e 00C0      		rjmp .L6
 206               	.LM27:
 207 0120 EA94      		dec r14
 208               	.LM28:
 209 0122 01F4      		brne .L6
 210 0124 32E0      		ldi r19,lo8(2)
 211 0126 E32E      		mov r14,r19
 212               	.L6:
 213               	.LM29:
 214 0128 4D99      		sbic 41-32,5
 215 012a 00C0      		rjmp .L7
 216               	.LM30:
 217 012c E394      		inc r14
 218               	.LM31:
 219 012e F4E4      		ldi r31,lo8(68)
 220 0130 FE15      		cp r31,r14
 221 0132 00F4      		brsh .L7
 222 0134 23E4      		ldi r18,lo8(67)
 223 0136 E22E      		mov r14,r18
 224               	.L7:
 225               	.LM32:
 226 0138 FF20      		tst r15
 227 013a 01F4      		brne .L8
 228 013c 8091 0000 		lds r24,Bewegung
 229 0140 8130      		cpi r24,lo8(1)
 230 0142 01F4      		brne .L9
 231               	.LM33:
 232 0144 D394      		inc r13
 233 0146 00C0      		rjmp .L9
 234               	.L8:
 235               	.LM34:
 236 0148 81E0      		ldi r24,lo8(1)
 237 014a F816      		cp r15,r24
 238 014c 01F4      		brne .L9
 239 014e 8091 0000 		lds r24,Bewegung
 240 0152 8130      		cpi r24,lo8(1)
 241 0154 01F4      		brne .L9
 242               	.LM35:
 243 0156 DA94      		dec r13
 244               	.L9:
 245               	.LM36:
 246 0158 CC20      		tst r12
 247 015a 01F4      		brne .L10
 248 015c 8091 0000 		lds r24,Bewegung
 249 0160 8130      		cpi r24,lo8(1)
 250 0162 01F4      		brne .L11
 251               	.LM37:
 252 0164 1150      		subi r17,lo8(-(-1))
 253 0166 00C0      		rjmp .L11
 254               	.L10:
 255               	.LM38:
 256 0168 E1E0      		ldi r30,lo8(1)
 257 016a CE16      		cp r12,r30
 258 016c 01F4      		brne .L11
 259 016e 8091 0000 		lds r24,Bewegung
 260 0172 8130      		cpi r24,lo8(1)
 261 0174 01F4      		brne .L11
 262               	.LM39:
 263 0176 1F5F      		subi r17,lo8(-(1))
 264               	.L11:
 265               	.LM40:
 266 0178 6D2D      		mov r22,r13
 267 017a 70E0      		ldi r23,lo8(0)
 268 017c 6832      		cpi r22,40
 269 017e 7105      		cpc r23,__zero_reg__
 270 0180 04F0      		brlt .L12
 271 0182 2E2D      		mov r18,r14
 272 0184 30E0      		ldi r19,lo8(0)
 273 0186 412F      		mov r20,r17
 274 0188 50E0      		ldi r21,lo8(0)
 275 018a C901      		movw r24,r18
 276 018c 0496      		adiw r24,4
 277 018e 8417      		cp r24,r20
 278 0190 9507      		cpc r25,r21
 279 0192 04F4      		brge .L12
 280 0194 265F      		subi r18,lo8(-(10))
 281 0196 3F4F      		sbci r19,hi8(-(10))
 282 0198 2417      		cp r18,r20
 283 019a 3507      		cpc r19,r21
 284 019c 04F0      		brlt .L12
 285 019e FF20      		tst r15
 286 01a0 01F4      		brne .L12
 287 01a2 6A32      		cpi r22,42
 288 01a4 7105      		cpc r23,__zero_reg__
 289 01a6 04F4      		brge .L14
 290 01a8 FF24      		clr r15
 291 01aa F394      		inc r15
 292 01ac 00C0      		rjmp .L14
 293               	.L12:
 294               	.LM41:
 295 01ae F1E0      		ldi r31,lo8(1)
 296 01b0 FF16      		cp r15,r31
 297 01b2 01F4      		brne .L15
 298 01b4 FF24      		clr r15
 299 01b6 82E0      		ldi r24,lo8(2)
 300 01b8 8D15      		cp r24,r13
 301 01ba 00F4      		brsh .L15
 302 01bc FF24      		clr r15
 303 01be F394      		inc r15
 304               	.L15:
 305               	.LM42:
 306 01c0 6832      		cpi r22,40
 307 01c2 7105      		cpc r23,__zero_reg__
 308 01c4 04F0      		brlt .L17
 309               	.L14:
 310 01c6 212F      		mov r18,r17
 311 01c8 30E0      		ldi r19,lo8(0)
 312               	.LVL17:
 313 01ca 8E2D      		mov r24,r14
 314 01cc 90E0      		ldi r25,lo8(0)
 315               	.LVL18:
 316 01ce 0596      		adiw r24,5
 317               	.LVL19:
 318 01d0 8217      		cp r24,r18
 319 01d2 9307      		cpc r25,r19
 320 01d4 04F0      		brlt .L17
 321               	.LVL20:
 322 01d6 1E15      		cp r17,r14
 323 01d8 00F0      		brlo .L17
 324               	.LVL21:
 325 01da FF20      		tst r15
 326 01dc 01F4      		brne .L17
 327 01de 6A32      		cpi r22,42
 328 01e0 7105      		cpc r23,__zero_reg__
 329 01e2 04F4      		brge .L17
 330 01e4 FF24      		clr r15
 331 01e6 F394      		inc r15
 332 01e8 00C0      		rjmp .L61
 333               	.L17:
 334               	.LM43:
 335 01ea 1330      		cpi r17,lo8(3)
 336 01ec 00F4      		brsh .L19
 337 01ee CC24      		clr r12
 338 01f0 C394      		inc r12
 339 01f2 00C0      		rjmp .L18
 340               	.L19:
 341               	.LM44:
 342 01f4 2E2D      		mov r18,r14
 343 01f6 30E0      		ldi r19,lo8(0)
 344               	.LVL22:
 345 01f8 412F      		mov r20,r17
 346 01fa 50E0      		ldi r21,lo8(0)
 347 01fc C901      		movw r24,r18
 348 01fe 0996      		adiw r24,9
 349 0200 8417      		cp r24,r20
 350 0202 9507      		cpc r25,r21
 351 0204 04F4      		brge .L20
 352 0206 215F      		subi r18,lo8(-(15))
 353 0208 3F4F      		sbci r19,hi8(-(15))
 354 020a 2417      		cp r18,r20
 355 020c 3507      		cpc r19,r21
 356 020e 04F0      		brlt .L20
 357 0210 6832      		cpi r22,40
 358 0212 7105      		cpc r23,__zero_reg__
 359 0214 04F0      		brlt .L20
 360 0216 FF20      		tst r15
 361 0218 01F4      		brne .L20
 362 021a 6A32      		cpi r22,42
 363 021c 7105      		cpc r23,__zero_reg__
 364 021e 04F4      		brge .+2
 365 0220 00C0      		rjmp .L21
 366               	.L20:
 367               	.LM45:
 368 0222 1235      		cpi r17,lo8(82)
 369 0224 00F0      		brlo .L18
 370               	.LVL23:
 371               	.L61:
 372 0226 CC24      		clr r12
 373               	.L18:
 374               	.LM46:
 375 0228 6530      		cpi r22,5
 376 022a 7105      		cpc r23,__zero_reg__
 377 022c 04F0      		brlt .+2
 378 022e 00C0      		rjmp .L22
 379 0230 1430      		cpi r17,lo8(4)
 380 0232 00F4      		brsh .+2
 381 0234 00C0      		rjmp .L23
 382 0236 812F      		mov r24,r17
 383 0238 90E0      		ldi r25,lo8(0)
 384               	.LVL24:
 385 023a 4197      		sbiw r24,17
 386 023c 04F0      		brlt .+2
 387 023e 00C0      		rjmp .L23
 388               	.LVL25:
 389 0240 E981      		ldd r30,Y+1
 390 0242 E130      		cpi r30,lo8(1)
 391 0244 01F0      		breq .+2
 392 0246 00C0      		rjmp .L24
 393 0248 FF24      		clr r15
 394 024a 00C0      		rjmp .L24
 395               	.LVL26:
 396               	.L51:
 397               	.LM47:
 398 024c 812F      		mov r24,r17
 399 024e 90E0      		ldi r25,lo8(0)
 400               	.LVL27:
 401 0250 8197      		sbiw r24,33
 402 0252 04F0      		brlt .+2
 403 0254 00C0      		rjmp .L25
 404               	.LVL28:
 405 0256 F1E0      		ldi r31,lo8(1)
 406 0258 2F16      		cp r2,r31
 407 025a 01F4      		brne .L26
 408 025c FF24      		clr r15
 409               	.L26:
 410 025e 2224      		clr r2
 411 0260 00C0      		rjmp .L25
 412               	.LVL29:
 413               	.L52:
 414               	.LM48:
 415 0262 812F      		mov r24,r17
 416 0264 90E0      		ldi r25,lo8(0)
 417               	.LVL30:
 418 0266 C197      		sbiw r24,49
 419 0268 04F0      		brlt .+2
 420 026a 00C0      		rjmp .L27
 421               	.LVL31:
 422 026c 81E0      		ldi r24,lo8(1)
 423               	.LVL32:
 424 026e 3816      		cp r3,r24
 425 0270 01F4      		brne .L28
 426 0272 FF24      		clr r15
 427               	.L28:
 428 0274 3324      		clr r3
 429 0276 00C0      		rjmp .L27
 430               	.LVL33:
 431               	.L53:
 432               	.LM49:
 433 0278 812F      		mov r24,r17
 434 027a 90E0      		ldi r25,lo8(0)
 435               	.LVL34:
 436 027c 8134      		cpi r24,65
 437 027e 9105      		cpc r25,__zero_reg__
 438 0280 04F0      		brlt .+2
 439 0282 00C0      		rjmp .L29
 440               	.LVL35:
 441 0284 E1E0      		ldi r30,lo8(1)
 442 0286 4E16      		cp r4,r30
 443 0288 01F4      		brne .L30
 444 028a FF24      		clr r15
 445               	.L30:
 446 028c 4424      		clr r4
 447 028e 00C0      		rjmp .L29
 448               	.LVL36:
 449               	.L54:
 450               	.LM50:
 451 0290 812F      		mov r24,r17
 452 0292 90E0      		ldi r25,lo8(0)
 453               	.LVL37:
 454 0294 8135      		cpi r24,81
 455 0296 9105      		cpc r25,__zero_reg__
 456 0298 04F4      		brge .L31
 457               	.LVL38:
 458 029a F1E0      		ldi r31,lo8(1)
 459 029c 5F16      		cp r5,r31
 460 029e 01F0      		breq .+2
 461 02a0 00C0      		rjmp .L62
 462 02a2 00C0      		rjmp .L32
 463               	.LVL39:
 464               	.L21:
 465 02a4 FF24      		clr r15
 466 02a6 F394      		inc r15
 467 02a8 CC24      		clr r12
 468 02aa C394      		inc r12
 469               	.LVL40:
 470               	.L22:
 471               	.LM51:
 472 02ac 6A30      		cpi r22,10
 473 02ae 7105      		cpc r23,__zero_reg__
 474 02b0 04F0      		brlt .+2
 475 02b2 00C0      		rjmp .L33
 476               	.LVL41:
 477               	.L31:
 478 02b4 1430      		cpi r17,lo8(4)
 479 02b6 00F4      		brsh .+2
 480 02b8 00C0      		rjmp .L34
 481 02ba 812F      		mov r24,r17
 482 02bc 90E0      		ldi r25,lo8(0)
 483               	.LVL42:
 484 02be 0997      		sbiw r24,9
 485 02c0 04F0      		brlt .+2
 486 02c2 00C0      		rjmp .L34
 487               	.LVL43:
 488 02c4 81E0      		ldi r24,lo8(1)
 489               	.LVL44:
 490 02c6 6816      		cp r6,r24
 491 02c8 01F0      		breq .+2
 492 02ca 00C0      		rjmp .L35
 493 02cc FF24      		clr r15
 494 02ce 00C0      		rjmp .L35
 495               	.LVL45:
 496               	.L55:
 497               	.LM52:
 498 02d0 812F      		mov r24,r17
 499 02d2 90E0      		ldi r25,lo8(0)
 500               	.LVL46:
 501 02d4 4997      		sbiw r24,25
 502 02d6 04F0      		brlt .+2
 503 02d8 00C0      		rjmp .L36
 504               	.LVL47:
 505 02da E1E0      		ldi r30,lo8(1)
 506 02dc 7E16      		cp r7,r30
 507 02de 01F4      		brne .L37
 508 02e0 FF24      		clr r15
 509               	.L37:
 510 02e2 7724      		clr r7
 511 02e4 00C0      		rjmp .L36
 512               	.LVL48:
 513               	.L56:
 514               	.LM53:
 515 02e6 812F      		mov r24,r17
 516 02e8 90E0      		ldi r25,lo8(0)
 517               	.LVL49:
 518 02ea 8997      		sbiw r24,41
 519 02ec 04F0      		brlt .+2
 520 02ee 00C0      		rjmp .L38
 521               	.LVL50:
 522 02f0 F1E0      		ldi r31,lo8(1)
 523 02f2 8F16      		cp r8,r31
 524 02f4 01F4      		brne .L39
 525 02f6 FF24      		clr r15
 526               	.L39:
 527 02f8 8824      		clr r8
 528 02fa 00C0      		rjmp .L38
 529               	.LVL51:
 530               	.L57:
 531               	.LM54:
 532 02fc 812F      		mov r24,r17
 533 02fe 90E0      		ldi r25,lo8(0)
 534               	.LVL52:
 535 0300 C997      		sbiw r24,57
 536 0302 04F0      		brlt .+2
 537 0304 00C0      		rjmp .L40
 538               	.LVL53:
 539 0306 81E0      		ldi r24,lo8(1)
 540               	.LVL54:
 541 0308 9816      		cp r9,r24
 542 030a 01F4      		brne .L41
 543 030c FF24      		clr r15
 544               	.L41:
 545 030e 9924      		clr r9
 546 0310 00C0      		rjmp .L40
 547               	.LVL55:
 548               	.L58:
 549               	.LM55:
 550 0312 812F      		mov r24,r17
 551 0314 90E0      		ldi r25,lo8(0)
 552               	.LVL56:
 553 0316 8934      		cpi r24,73
 554 0318 9105      		cpc r25,__zero_reg__
 555 031a 04F0      		brlt .+2
 556 031c 00C0      		rjmp .L42
 557               	.LVL57:
 558 031e E1E0      		ldi r30,lo8(1)
 559 0320 AE16      		cp r10,r30
 560 0322 01F4      		brne .L43
 561 0324 FF24      		clr r15
 562               	.L43:
 563 0326 AA24      		clr r10
 564 0328 00C0      		rjmp .L42
 565               	.LVL58:
 566               	.L59:
 567               	.LM56:
 568 032a 812F      		mov r24,r17
 569 032c 90E0      		ldi r25,lo8(0)
 570               	.LVL59:
 571 032e 8135      		cpi r24,81
 572 0330 9105      		cpc r25,__zero_reg__
 573 0332 04F4      		brge .L33
 574               	.LVL60:
 575 0334 F1E0      		ldi r31,lo8(1)
 576 0336 BF16      		cp r11,r31
 577 0338 01F4      		brne .L44
 578 033a FF24      		clr r15
 579               	.L44:
 580 033c BB24      		clr r11
 581               	.LVL61:
 582               	.L33:
 583               	.LM57:
 584 033e 8981      		ldd r24,Y+1
 585 0340 8823      		tst r24
 586 0342 01F4      		brne .L45
 587 0344 2220      		tst r2
 588 0346 01F4      		brne .L45
 589 0348 3320      		tst r3
 590 034a 01F4      		brne .L45
 591 034c 4420      		tst r4
 592 034e 01F4      		brne .L45
 593 0350 5520      		tst r5
 594 0352 01F4      		brne .L45
 595 0354 6620      		tst r6
 596 0356 01F4      		brne .L45
 597 0358 7720      		tst r7
 598 035a 01F4      		brne .L45
 599 035c 8820      		tst r8
 600 035e 01F4      		brne .L45
 601 0360 9920      		tst r9
 602 0362 01F4      		brne .L45
 603 0364 AA20      		tst r10
 604 0366 01F4      		brne .L45
 605 0368 BB20      		tst r11
 606 036a 01F4      		brne .+2
 607 036c 00C0      		rjmp .L46
 608               	.L45:
 609               	.LM58:
 610 036e 6E32      		cpi r22,46
 611 0370 7105      		cpc r23,__zero_reg__
 612 0372 04F0      		brlt .L47
 613               	.LM59:
 614 0374 EA81      		ldd r30,Y+2
 615 0376 E150      		subi r30,lo8(-(-1))
 616 0378 EA83      		std Y+2,r30
 617               	.LVL62:
 618 037a 98E1      		ldi r25,lo8(24)
 619 037c D92E      		mov r13,r25
 620               	.LVL63:
 621 037e 18E2      		ldi r17,lo8(40)
 622 0380 FF24      		clr r15
 623 0382 82E0      		ldi r24,lo8(2)
 624 0384 C82E      		mov r12,r24
 625 0386 00C0      		rjmp .L48
 626               	.LVL64:
 627               	.L47:
 628               	.LM60:
 629 0388 FA81      		ldd r31,Y+2
 630 038a FF23      		tst r31
 631 038c 01F4      		brne .+2
 632 038e 00C0      		rjmp .L46
 633               	.LVL65:
 634               	.L48:
 635               	.LM61:
 636 0390 0E94 0000 		call glcd_clear_buffer
 637               	.LVL66:
 638               	.LM62:
 639 0394 84E0      		ldi r24,lo8(4)
 640 0396 62E0      		ldi r22,lo8(2)
 641 0398 4CE0      		ldi r20,lo8(12)
 642 039a 24E0      		ldi r18,lo8(4)
 643 039c 0981      		ldd r16,Y+1
 644 039e 0E94 0000 		call glcd_fill_rect
 645               	.LM63:
 646 03a2 84E1      		ldi r24,lo8(20)
 647 03a4 62E0      		ldi r22,lo8(2)
 648 03a6 4CE0      		ldi r20,lo8(12)
 649 03a8 24E0      		ldi r18,lo8(4)
 650 03aa 022D      		mov r16,r2
 651 03ac 0E94 0000 		call glcd_fill_rect
 652               	.LM64:
 653 03b0 84E2      		ldi r24,lo8(36)
 654 03b2 62E0      		ldi r22,lo8(2)
 655 03b4 4CE0      		ldi r20,lo8(12)
 656 03b6 24E0      		ldi r18,lo8(4)
 657 03b8 032D      		mov r16,r3
 658 03ba 0E94 0000 		call glcd_fill_rect
 659               	.LM65:
 660 03be 84E3      		ldi r24,lo8(52)
 661 03c0 62E0      		ldi r22,lo8(2)
 662 03c2 4CE0      		ldi r20,lo8(12)
 663 03c4 24E0      		ldi r18,lo8(4)
 664 03c6 042D      		mov r16,r4
 665 03c8 0E94 0000 		call glcd_fill_rect
 666               	.LM66:
 667 03cc 84E4      		ldi r24,lo8(68)
 668 03ce 62E0      		ldi r22,lo8(2)
 669 03d0 4CE0      		ldi r20,lo8(12)
 670 03d2 24E0      		ldi r18,lo8(4)
 671 03d4 052D      		mov r16,r5
 672 03d6 0E94 0000 		call glcd_fill_rect
 673               	.LM67:
 674 03da 84E0      		ldi r24,lo8(4)
 675 03dc 67E0      		ldi r22,lo8(7)
 676 03de 44E0      		ldi r20,lo8(4)
 677 03e0 24E0      		ldi r18,lo8(4)
 678 03e2 062D      		mov r16,r6
 679 03e4 0E94 0000 		call glcd_fill_rect
 680               	.LM68:
 681 03e8 8CE0      		ldi r24,lo8(12)
 682 03ea 67E0      		ldi r22,lo8(7)
 683 03ec 4CE0      		ldi r20,lo8(12)
 684 03ee 24E0      		ldi r18,lo8(4)
 685 03f0 072D      		mov r16,r7
 686 03f2 0E94 0000 		call glcd_fill_rect
 687               	.LM69:
 688 03f6 8CE1      		ldi r24,lo8(28)
 689 03f8 67E0      		ldi r22,lo8(7)
 690 03fa 4CE0      		ldi r20,lo8(12)
 691 03fc 24E0      		ldi r18,lo8(4)
 692 03fe 082D      		mov r16,r8
 693 0400 0E94 0000 		call glcd_fill_rect
 694               	.LM70:
 695 0404 8CE2      		ldi r24,lo8(44)
 696 0406 67E0      		ldi r22,lo8(7)
 697 0408 4CE0      		ldi r20,lo8(12)
 698 040a 24E0      		ldi r18,lo8(4)
 699 040c 092D      		mov r16,r9
 700 040e 0E94 0000 		call glcd_fill_rect
 701               	.LM71:
 702 0412 8CE3      		ldi r24,lo8(60)
 703 0414 67E0      		ldi r22,lo8(7)
 704 0416 4CE0      		ldi r20,lo8(12)
 705 0418 24E0      		ldi r18,lo8(4)
 706 041a 0A2D      		mov r16,r10
 707 041c 0E94 0000 		call glcd_fill_rect
 708               	.LM72:
 709 0420 8CE4      		ldi r24,lo8(76)
 710 0422 67E0      		ldi r22,lo8(7)
 711 0424 44E0      		ldi r20,lo8(4)
 712 0426 24E0      		ldi r18,lo8(4)
 713 0428 0B2D      		mov r16,r11
 714 042a 0E94 0000 		call glcd_fill_rect
 715               	.LM73:
 716 042e 8E2D      		mov r24,r14
 717 0430 6AE2      		ldi r22,lo8(42)
 718 0432 4FE0      		ldi r20,lo8(15)
 719 0434 23E0      		ldi r18,lo8(3)
 720 0436 01E0      		ldi r16,lo8(1)
 721 0438 0E94 0000 		call glcd_fill_rect
 722               	.LM74:
 723 043c 812F      		mov r24,r17
 724 043e 6D2D      		mov r22,r13
 725 0440 42E0      		ldi r20,lo8(2)
 726 0442 21E0      		ldi r18,lo8(1)
 727 0444 0E94 0000 		call glcd_fill_circle
 728               	.LM75:
 729 0448 80E0      		ldi r24,lo8(0)
 730 044a 60E0      		ldi r22,lo8(0)
 731 044c 44E5      		ldi r20,lo8(84)
 732 044e 2FE2      		ldi r18,lo8(47)
 733 0450 0E94 0000 		call glcd_draw_rect
 734               	.LM76:
 735 0454 0E94 0000 		call glcd_write
 736 0458 00C0      		rjmp .L49
 737               	.LVL67:
 738               	.L46:
 739               	.LM77:
 740 045a 0E94 0000 		call glcd_clear_buffer
 741               	.LVL68:
 742               	.L50:
 743               	.LM78:
 744 045e 80E1      		ldi r24,lo8(16)
 745 0460 63E0      		ldi r22,lo8(3)
 746 0462 40E0      		ldi r20,lo8(.LC0)
 747 0464 50E0      		ldi r21,hi8(.LC0)
 748 0466 0E94 0000 		call glcd_tiny_draw_string
 749               	.LM79:
 750 046a 0E94 0000 		call glcd_write
 751 046e 00C0      		rjmp .L50
 752               	.LVL69:
 753               	.L24:
 754 0470 1982      		std Y+1,__zero_reg__
 755               	.LVL70:
 756               	.L23:
 757               	.LM80:
 758 0472 1431      		cpi r17,lo8(20)
 759 0474 00F0      		brlo .+2
 760 0476 00C0      		rjmp .L51
 761               	.L25:
 762               	.LM81:
 763 0478 1432      		cpi r17,lo8(36)
 764 047a 00F0      		brlo .+2
 765 047c 00C0      		rjmp .L52
 766               	.L27:
 767               	.LM82:
 768 047e 1433      		cpi r17,lo8(52)
 769 0480 00F0      		brlo .+2
 770 0482 00C0      		rjmp .L53
 771               	.L29:
 772               	.LM83:
 773 0484 1434      		cpi r17,lo8(68)
 774 0486 00F0      		brlo .+2
 775 0488 00C0      		rjmp .L54
 776 048a 00C0      		rjmp .L31
 777               	.LVL71:
 778               	.L35:
 779 048c 6624      		clr r6
 780               	.LVL72:
 781               	.L34:
 782               	.LM84:
 783 048e 1C30      		cpi r17,lo8(12)
 784 0490 00F0      		brlo .+2
 785 0492 00C0      		rjmp .L55
 786               	.L36:
 787               	.LM85:
 788 0494 1C31      		cpi r17,lo8(28)
 789 0496 00F0      		brlo .+2
 790 0498 00C0      		rjmp .L56
 791               	.L38:
 792               	.LM86:
 793 049a 1C32      		cpi r17,lo8(44)
 794 049c 00F0      		brlo .+2
 795 049e 00C0      		rjmp .L57
 796               	.L40:
 797               	.LM87:
 798 04a0 1C33      		cpi r17,lo8(60)
 799 04a2 00F0      		brlo .+2
 800 04a4 00C0      		rjmp .L58
 801               	.L42:
 802               	.LM88:
 803 04a6 1C34      		cpi r17,lo8(76)
 804 04a8 00F0      		brlo .+2
 805 04aa 00C0      		rjmp .L59
 806 04ac 00C0      		rjmp .L33
 807               	.LVL73:
 808               	.L32:
 809 04ae FF24      		clr r15
 810               	.L62:
 811 04b0 5524      		clr r5
 812 04b2 00C0      		rjmp .L31
 813               	.LFE8:
 815               	.global	ms10
 816               	.global	ms10
 817               		.section .bss
 820               	ms10:
 821 0000 00        		.skip 1,0
 822               	.global	ms100
 823               	.global	ms100
 826               	ms100:
 827 0001 00        		.skip 1,0
 828               	.global	Bewegung
 829               	.global	Bewegung
 832               	Bewegung:
 833 0002 00        		.skip 1,0
 834               		.section	.progmem.data,"a",@progbits
 837               	Font5x7:
 838 0000 00        		.byte	0
 839 0001 00        		.byte	0
 840 0002 00        		.byte	0
 841 0003 00        		.byte	0
 842 0004 00        		.byte	0
 843 0005 00        		.byte	0
 844 0006 00        		.byte	0
 845 0007 5F        		.byte	95
 846 0008 00        		.byte	0
 847 0009 00        		.byte	0
 848 000a 00        		.byte	0
 849 000b 07        		.byte	7
 850 000c 00        		.byte	0
 851 000d 07        		.byte	7
 852 000e 00        		.byte	0
 853 000f 14        		.byte	20
 854 0010 7F        		.byte	127
 855 0011 14        		.byte	20
 856 0012 7F        		.byte	127
 857 0013 14        		.byte	20
 858 0014 24        		.byte	36
 859 0015 2A        		.byte	42
 860 0016 7F        		.byte	127
 861 0017 2A        		.byte	42
 862 0018 12        		.byte	18
 863 0019 23        		.byte	35
 864 001a 13        		.byte	19
 865 001b 08        		.byte	8
 866 001c 64        		.byte	100
 867 001d 62        		.byte	98
 868 001e 36        		.byte	54
 869 001f 49        		.byte	73
 870 0020 55        		.byte	85
 871 0021 22        		.byte	34
 872 0022 50        		.byte	80
 873 0023 00        		.byte	0
 874 0024 05        		.byte	5
 875 0025 03        		.byte	3
 876 0026 00        		.byte	0
 877 0027 00        		.byte	0
 878 0028 00        		.byte	0
 879 0029 1C        		.byte	28
 880 002a 22        		.byte	34
 881 002b 41        		.byte	65
 882 002c 00        		.byte	0
 883 002d 00        		.byte	0
 884 002e 41        		.byte	65
 885 002f 22        		.byte	34
 886 0030 1C        		.byte	28
 887 0031 00        		.byte	0
 888 0032 08        		.byte	8
 889 0033 2A        		.byte	42
 890 0034 1C        		.byte	28
 891 0035 2A        		.byte	42
 892 0036 08        		.byte	8
 893 0037 08        		.byte	8
 894 0038 08        		.byte	8
 895 0039 3E        		.byte	62
 896 003a 08        		.byte	8
 897 003b 08        		.byte	8
 898 003c 00        		.byte	0
 899 003d 50        		.byte	80
 900 003e 30        		.byte	48
 901 003f 00        		.byte	0
 902 0040 00        		.byte	0
 903 0041 08        		.byte	8
 904 0042 08        		.byte	8
 905 0043 08        		.byte	8
 906 0044 08        		.byte	8
 907 0045 08        		.byte	8
 908 0046 00        		.byte	0
 909 0047 60        		.byte	96
 910 0048 60        		.byte	96
 911 0049 00        		.byte	0
 912 004a 00        		.byte	0
 913 004b 20        		.byte	32
 914 004c 10        		.byte	16
 915 004d 08        		.byte	8
 916 004e 04        		.byte	4
 917 004f 02        		.byte	2
 918 0050 3E        		.byte	62
 919 0051 51        		.byte	81
 920 0052 49        		.byte	73
 921 0053 45        		.byte	69
 922 0054 3E        		.byte	62
 923 0055 00        		.byte	0
 924 0056 42        		.byte	66
 925 0057 7F        		.byte	127
 926 0058 40        		.byte	64
 927 0059 00        		.byte	0
 928 005a 42        		.byte	66
 929 005b 61        		.byte	97
 930 005c 51        		.byte	81
 931 005d 49        		.byte	73
 932 005e 46        		.byte	70
 933 005f 21        		.byte	33
 934 0060 41        		.byte	65
 935 0061 45        		.byte	69
 936 0062 4B        		.byte	75
 937 0063 31        		.byte	49
 938 0064 18        		.byte	24
 939 0065 14        		.byte	20
 940 0066 12        		.byte	18
 941 0067 7F        		.byte	127
 942 0068 10        		.byte	16
 943 0069 27        		.byte	39
 944 006a 45        		.byte	69
 945 006b 45        		.byte	69
 946 006c 45        		.byte	69
 947 006d 39        		.byte	57
 948 006e 3C        		.byte	60
 949 006f 4A        		.byte	74
 950 0070 49        		.byte	73
 951 0071 49        		.byte	73
 952 0072 30        		.byte	48
 953 0073 01        		.byte	1
 954 0074 71        		.byte	113
 955 0075 09        		.byte	9
 956 0076 05        		.byte	5
 957 0077 03        		.byte	3
 958 0078 36        		.byte	54
 959 0079 49        		.byte	73
 960 007a 49        		.byte	73
 961 007b 49        		.byte	73
 962 007c 36        		.byte	54
 963 007d 06        		.byte	6
 964 007e 49        		.byte	73
 965 007f 49        		.byte	73
 966 0080 29        		.byte	41
 967 0081 1E        		.byte	30
 968 0082 00        		.byte	0
 969 0083 36        		.byte	54
 970 0084 36        		.byte	54
 971 0085 00        		.byte	0
 972 0086 00        		.byte	0
 973 0087 00        		.byte	0
 974 0088 56        		.byte	86
 975 0089 36        		.byte	54
 976 008a 00        		.byte	0
 977 008b 00        		.byte	0
 978 008c 00        		.byte	0
 979 008d 08        		.byte	8
 980 008e 14        		.byte	20
 981 008f 22        		.byte	34
 982 0090 41        		.byte	65
 983 0091 14        		.byte	20
 984 0092 14        		.byte	20
 985 0093 14        		.byte	20
 986 0094 14        		.byte	20
 987 0095 14        		.byte	20
 988 0096 41        		.byte	65
 989 0097 22        		.byte	34
 990 0098 14        		.byte	20
 991 0099 08        		.byte	8
 992 009a 00        		.byte	0
 993 009b 02        		.byte	2
 994 009c 01        		.byte	1
 995 009d 51        		.byte	81
 996 009e 09        		.byte	9
 997 009f 06        		.byte	6
 998 00a0 32        		.byte	50
 999 00a1 49        		.byte	73
 1000 00a2 79        		.byte	121
 1001 00a3 41        		.byte	65
 1002 00a4 3E        		.byte	62
 1003 00a5 7E        		.byte	126
 1004 00a6 11        		.byte	17
 1005 00a7 11        		.byte	17
 1006 00a8 11        		.byte	17
 1007 00a9 7E        		.byte	126
 1008 00aa 7F        		.byte	127
 1009 00ab 49        		.byte	73
 1010 00ac 49        		.byte	73
 1011 00ad 49        		.byte	73
 1012 00ae 36        		.byte	54
 1013 00af 3E        		.byte	62
 1014 00b0 41        		.byte	65
 1015 00b1 41        		.byte	65
 1016 00b2 41        		.byte	65
 1017 00b3 22        		.byte	34
 1018 00b4 7F        		.byte	127
 1019 00b5 41        		.byte	65
 1020 00b6 41        		.byte	65
 1021 00b7 22        		.byte	34
 1022 00b8 1C        		.byte	28
 1023 00b9 7F        		.byte	127
 1024 00ba 49        		.byte	73
 1025 00bb 49        		.byte	73
 1026 00bc 49        		.byte	73
 1027 00bd 41        		.byte	65
 1028 00be 7F        		.byte	127
 1029 00bf 09        		.byte	9
 1030 00c0 09        		.byte	9
 1031 00c1 01        		.byte	1
 1032 00c2 01        		.byte	1
 1033 00c3 3E        		.byte	62
 1034 00c4 41        		.byte	65
 1035 00c5 41        		.byte	65
 1036 00c6 51        		.byte	81
 1037 00c7 32        		.byte	50
 1038 00c8 7F        		.byte	127
 1039 00c9 08        		.byte	8
 1040 00ca 08        		.byte	8
 1041 00cb 08        		.byte	8
 1042 00cc 7F        		.byte	127
 1043 00cd 00        		.byte	0
 1044 00ce 41        		.byte	65
 1045 00cf 7F        		.byte	127
 1046 00d0 41        		.byte	65
 1047 00d1 00        		.byte	0
 1048 00d2 20        		.byte	32
 1049 00d3 40        		.byte	64
 1050 00d4 41        		.byte	65
 1051 00d5 3F        		.byte	63
 1052 00d6 01        		.byte	1
 1053 00d7 7F        		.byte	127
 1054 00d8 08        		.byte	8
 1055 00d9 14        		.byte	20
 1056 00da 22        		.byte	34
 1057 00db 41        		.byte	65
 1058 00dc 7F        		.byte	127
 1059 00dd 40        		.byte	64
 1060 00de 40        		.byte	64
 1061 00df 40        		.byte	64
 1062 00e0 40        		.byte	64
 1063 00e1 7F        		.byte	127
 1064 00e2 02        		.byte	2
 1065 00e3 04        		.byte	4
 1066 00e4 02        		.byte	2
 1067 00e5 7F        		.byte	127
 1068 00e6 7F        		.byte	127
 1069 00e7 04        		.byte	4
 1070 00e8 08        		.byte	8
 1071 00e9 10        		.byte	16
 1072 00ea 7F        		.byte	127
 1073 00eb 3E        		.byte	62
 1074 00ec 41        		.byte	65
 1075 00ed 41        		.byte	65
 1076 00ee 41        		.byte	65
 1077 00ef 3E        		.byte	62
 1078 00f0 7F        		.byte	127
 1079 00f1 09        		.byte	9
 1080 00f2 09        		.byte	9
 1081 00f3 09        		.byte	9
 1082 00f4 06        		.byte	6
 1083 00f5 3E        		.byte	62
 1084 00f6 41        		.byte	65
 1085 00f7 51        		.byte	81
 1086 00f8 21        		.byte	33
 1087 00f9 5E        		.byte	94
 1088 00fa 7F        		.byte	127
 1089 00fb 09        		.byte	9
 1090 00fc 19        		.byte	25
 1091 00fd 29        		.byte	41
 1092 00fe 46        		.byte	70
 1093 00ff 46        		.byte	70
 1094 0100 49        		.byte	73
 1095 0101 49        		.byte	73
 1096 0102 49        		.byte	73
 1097 0103 31        		.byte	49
 1098 0104 01        		.byte	1
 1099 0105 01        		.byte	1
 1100 0106 7F        		.byte	127
 1101 0107 01        		.byte	1
 1102 0108 01        		.byte	1
 1103 0109 3F        		.byte	63
 1104 010a 40        		.byte	64
 1105 010b 40        		.byte	64
 1106 010c 40        		.byte	64
 1107 010d 3F        		.byte	63
 1108 010e 1F        		.byte	31
 1109 010f 20        		.byte	32
 1110 0110 40        		.byte	64
 1111 0111 20        		.byte	32
 1112 0112 1F        		.byte	31
 1113 0113 7F        		.byte	127
 1114 0114 20        		.byte	32
 1115 0115 18        		.byte	24
 1116 0116 20        		.byte	32
 1117 0117 7F        		.byte	127
 1118 0118 63        		.byte	99
 1119 0119 14        		.byte	20
 1120 011a 08        		.byte	8
 1121 011b 14        		.byte	20
 1122 011c 63        		.byte	99
 1123 011d 03        		.byte	3
 1124 011e 04        		.byte	4
 1125 011f 78        		.byte	120
 1126 0120 04        		.byte	4
 1127 0121 03        		.byte	3
 1128 0122 61        		.byte	97
 1129 0123 51        		.byte	81
 1130 0124 49        		.byte	73
 1131 0125 45        		.byte	69
 1132 0126 43        		.byte	67
 1133 0127 00        		.byte	0
 1134 0128 00        		.byte	0
 1135 0129 7F        		.byte	127
 1136 012a 41        		.byte	65
 1137 012b 41        		.byte	65
 1138 012c 02        		.byte	2
 1139 012d 04        		.byte	4
 1140 012e 08        		.byte	8
 1141 012f 10        		.byte	16
 1142 0130 20        		.byte	32
 1143 0131 41        		.byte	65
 1144 0132 41        		.byte	65
 1145 0133 7F        		.byte	127
 1146 0134 00        		.byte	0
 1147 0135 00        		.byte	0
 1148 0136 04        		.byte	4
 1149 0137 02        		.byte	2
 1150 0138 01        		.byte	1
 1151 0139 02        		.byte	2
 1152 013a 04        		.byte	4
 1153 013b 40        		.byte	64
 1154 013c 40        		.byte	64
 1155 013d 40        		.byte	64
 1156 013e 40        		.byte	64
 1157 013f 40        		.byte	64
 1158 0140 00        		.byte	0
 1159 0141 01        		.byte	1
 1160 0142 02        		.byte	2
 1161 0143 04        		.byte	4
 1162 0144 00        		.byte	0
 1163 0145 20        		.byte	32
 1164 0146 54        		.byte	84
 1165 0147 54        		.byte	84
 1166 0148 54        		.byte	84
 1167 0149 78        		.byte	120
 1168 014a 7F        		.byte	127
 1169 014b 48        		.byte	72
 1170 014c 44        		.byte	68
 1171 014d 44        		.byte	68
 1172 014e 38        		.byte	56
 1173 014f 38        		.byte	56
 1174 0150 44        		.byte	68
 1175 0151 44        		.byte	68
 1176 0152 44        		.byte	68
 1177 0153 20        		.byte	32
 1178 0154 38        		.byte	56
 1179 0155 44        		.byte	68
 1180 0156 44        		.byte	68
 1181 0157 48        		.byte	72
 1182 0158 7F        		.byte	127
 1183 0159 38        		.byte	56
 1184 015a 54        		.byte	84
 1185 015b 54        		.byte	84
 1186 015c 54        		.byte	84
 1187 015d 18        		.byte	24
 1188 015e 08        		.byte	8
 1189 015f 7E        		.byte	126
 1190 0160 09        		.byte	9
 1191 0161 01        		.byte	1
 1192 0162 02        		.byte	2
 1193 0163 08        		.byte	8
 1194 0164 14        		.byte	20
 1195 0165 54        		.byte	84
 1196 0166 54        		.byte	84
 1197 0167 3C        		.byte	60
 1198 0168 7F        		.byte	127
 1199 0169 08        		.byte	8
 1200 016a 04        		.byte	4
 1201 016b 04        		.byte	4
 1202 016c 78        		.byte	120
 1203 016d 00        		.byte	0
 1204 016e 44        		.byte	68
 1205 016f 7D        		.byte	125
 1206 0170 40        		.byte	64
 1207 0171 00        		.byte	0
 1208 0172 20        		.byte	32
 1209 0173 40        		.byte	64
 1210 0174 44        		.byte	68
 1211 0175 3D        		.byte	61
 1212 0176 00        		.byte	0
 1213 0177 00        		.byte	0
 1214 0178 7F        		.byte	127
 1215 0179 10        		.byte	16
 1216 017a 28        		.byte	40
 1217 017b 44        		.byte	68
 1218 017c 00        		.byte	0
 1219 017d 41        		.byte	65
 1220 017e 7F        		.byte	127
 1221 017f 40        		.byte	64
 1222 0180 00        		.byte	0
 1223 0181 7C        		.byte	124
 1224 0182 04        		.byte	4
 1225 0183 18        		.byte	24
 1226 0184 04        		.byte	4
 1227 0185 78        		.byte	120
 1228 0186 7C        		.byte	124
 1229 0187 08        		.byte	8
 1230 0188 04        		.byte	4
 1231 0189 04        		.byte	4
 1232 018a 78        		.byte	120
 1233 018b 38        		.byte	56
 1234 018c 44        		.byte	68
 1235 018d 44        		.byte	68
 1236 018e 44        		.byte	68
 1237 018f 38        		.byte	56
 1238 0190 7C        		.byte	124
 1239 0191 14        		.byte	20
 1240 0192 14        		.byte	20
 1241 0193 14        		.byte	20
 1242 0194 08        		.byte	8
 1243 0195 08        		.byte	8
 1244 0196 14        		.byte	20
 1245 0197 14        		.byte	20
 1246 0198 18        		.byte	24
 1247 0199 7C        		.byte	124
 1248 019a 7C        		.byte	124
 1249 019b 08        		.byte	8
 1250 019c 04        		.byte	4
 1251 019d 04        		.byte	4
 1252 019e 08        		.byte	8
 1253 019f 48        		.byte	72
 1254 01a0 54        		.byte	84
 1255 01a1 54        		.byte	84
 1256 01a2 54        		.byte	84
 1257 01a3 20        		.byte	32
 1258 01a4 04        		.byte	4
 1259 01a5 3F        		.byte	63
 1260 01a6 44        		.byte	68
 1261 01a7 40        		.byte	64
 1262 01a8 20        		.byte	32
 1263 01a9 3C        		.byte	60
 1264 01aa 40        		.byte	64
 1265 01ab 40        		.byte	64
 1266 01ac 20        		.byte	32
 1267 01ad 7C        		.byte	124
 1268 01ae 1C        		.byte	28
 1269 01af 20        		.byte	32
 1270 01b0 40        		.byte	64
 1271 01b1 20        		.byte	32
 1272 01b2 1C        		.byte	28
 1273 01b3 3C        		.byte	60
 1274 01b4 40        		.byte	64
 1275 01b5 30        		.byte	48
 1276 01b6 40        		.byte	64
 1277 01b7 3C        		.byte	60
 1278 01b8 44        		.byte	68
 1279 01b9 28        		.byte	40
 1280 01ba 10        		.byte	16
 1281 01bb 28        		.byte	40
 1282 01bc 44        		.byte	68
 1283 01bd 0C        		.byte	12
 1284 01be 50        		.byte	80
 1285 01bf 50        		.byte	80
 1286 01c0 50        		.byte	80
 1287 01c1 3C        		.byte	60
 1288 01c2 44        		.byte	68
 1289 01c3 64        		.byte	100
 1290 01c4 54        		.byte	84
 1291 01c5 4C        		.byte	76
 1292 01c6 44        		.byte	68
 1293 01c7 00        		.byte	0
 1294 01c8 08        		.byte	8
 1295 01c9 36        		.byte	54
 1296 01ca 41        		.byte	65
 1297 01cb 00        		.byte	0
 1298 01cc 00        		.byte	0
 1299 01cd 00        		.byte	0
 1300 01ce 7F        		.byte	127
 1301 01cf 00        		.byte	0
 1302 01d0 00        		.byte	0
 1303 01d1 00        		.byte	0
 1304 01d2 41        		.byte	65
 1305 01d3 36        		.byte	54
 1306 01d4 08        		.byte	8
 1307 01d5 00        		.byte	0
 1308 01d6 08        		.byte	8
 1309 01d7 08        		.byte	8
 1310 01d8 2A        		.byte	42
 1311 01d9 1C        		.byte	28
 1312 01da 08        		.byte	8
 1313 01db 08        		.byte	8
 1314 01dc 1C        		.byte	28
 1315 01dd 2A        		.byte	42
 1316 01de 08        		.byte	8
 1317 01df 08        		.byte	8
 1350               	.Letext0:
DEFINED SYMBOLS
                            *ABS*:00000000 main.c
C:\Users\PLUM\AppData\Local\Temp/ccAgl4oc.s:2      *ABS*:0000003f __SREG__
C:\Users\PLUM\AppData\Local\Temp/ccAgl4oc.s:3      *ABS*:0000003e __SP_H__
C:\Users\PLUM\AppData\Local\Temp/ccAgl4oc.s:4      *ABS*:0000003d __SP_L__
C:\Users\PLUM\AppData\Local\Temp/ccAgl4oc.s:5      *ABS*:00000034 __CCP__
C:\Users\PLUM\AppData\Local\Temp/ccAgl4oc.s:6      *ABS*:00000000 __tmp_reg__
C:\Users\PLUM\AppData\Local\Temp/ccAgl4oc.s:7      *ABS*:00000001 __zero_reg__
C:\Users\PLUM\AppData\Local\Temp/ccAgl4oc.s:18     .text:00000000 __vector_11
C:\Users\PLUM\AppData\Local\Temp/ccAgl4oc.s:820    .bss:00000000 ms10
C:\Users\PLUM\AppData\Local\Temp/ccAgl4oc.s:832    .bss:00000002 Bewegung
C:\Users\PLUM\AppData\Local\Temp/ccAgl4oc.s:826    .bss:00000001 ms100
C:\Users\PLUM\AppData\Local\Temp/ccAgl4oc.s:72     .text:0000004e main
C:\Users\PLUM\AppData\Local\Temp/ccAgl4oc.s:837    .progmem.data:00000000 Font5x7

UNDEFINED SYMBOLS
glcd_fill_circle
glcd_init
glcd_clear
glcd_write
glcd_tiny_set_font
glcd_clear_buffer
glcd_fill_rect
glcd_draw_rect
glcd_tiny_draw_string
__do_copy_data
__do_clear_bss
